ARM GAS  C:\Users\jisu8\AppData\Local\Temp\ccmecjuR.s 			page 1


   1              		.cpu cortex-m3
   2              		.arch armv7-m
   3              		.fpu softvfp
   4              		.eabi_attribute 20, 1
   5              		.eabi_attribute 21, 1
   6              		.eabi_attribute 23, 3
   7              		.eabi_attribute 24, 1
   8              		.eabi_attribute 25, 1
   9              		.eabi_attribute 26, 1
  10              		.eabi_attribute 30, 6
  11              		.eabi_attribute 34, 1
  12              		.eabi_attribute 18, 4
  13              		.file	"blutooth.c"
  14              		.text
  15              	.Ltext0:
  16              		.cfi_sections	.debug_frame
  17              		.global	Blutooth_Tx_Data
  18              		.section	.bss.Blutooth_Tx_Data,"aw",%nobits
  19              		.align	2
  22              	Blutooth_Tx_Data:
  23 0000 00000000 		.space	100
  23      00000000 
  23      00000000 
  23      00000000 
  23      00000000 
  24              		.global	Blutooth_Rx_Data
  25              		.section	.bss.Blutooth_Rx_Data,"aw",%nobits
  26              		.align	2
  29              	Blutooth_Rx_Data:
  30 0000 00000000 		.space	100
  30      00000000 
  30      00000000 
  30      00000000 
  30      00000000 
  31              		.section	.rodata
  32              		.align	2
  33              	.LC0:
  34 0000 48656C6C 		.ascii	"Hello, Blutooth Connection Complete\000"
  34      6F2C2042 
  34      6C75746F 
  34      6F746820 
  34      436F6E6E 
  35              		.section	.text.Blutooth_Init,"ax",%progbits
  36              		.align	1
  37              		.global	Blutooth_Init
  38              		.syntax unified
  39              		.thumb
  40              		.thumb_func
  42              	Blutooth_Init:
  43              	.LFB68:
  44              		.file 1 "Core/Src/blutooth.c"
   1:Core/Src/blutooth.c **** #include "blutooth.h"
   2:Core/Src/blutooth.c **** #include <stdio.h>
   3:Core/Src/blutooth.c **** #include <string.h>
   4:Core/Src/blutooth.c **** 
   5:Core/Src/blutooth.c **** uint8 Blutooth_Tx_Data[100];
   6:Core/Src/blutooth.c **** uint8 Blutooth_Rx_Data[100];
ARM GAS  C:\Users\jisu8\AppData\Local\Temp\ccmecjuR.s 			page 2


   7:Core/Src/blutooth.c **** 
   8:Core/Src/blutooth.c **** void Blutooth_Init(void)
   9:Core/Src/blutooth.c **** {
  45              		.loc 1 9 1
  46              		.cfi_startproc
  47              		@ args = 0, pretend = 0, frame = 0
  48              		@ frame_needed = 1, uses_anonymous_args = 0
  49 0000 80B5     		push	{r7, lr}
  50              	.LCFI0:
  51              		.cfi_def_cfa_offset 8
  52              		.cfi_offset 7, -8
  53              		.cfi_offset 14, -4
  54 0002 00AF     		add	r7, sp, #0
  55              	.LCFI1:
  56              		.cfi_def_cfa_register 7
  10:Core/Src/blutooth.c ****     sprintf(Blutooth_Tx_Data,"Hello, Blutooth Connection Complete");
  57              		.loc 1 10 5
  58 0004 0A49     		ldr	r1, .L2
  59 0006 0B48     		ldr	r0, .L2+4
  60 0008 FFF7FEFF 		bl	sprintf
  11:Core/Src/blutooth.c ****     HAL_UART_Transmit(&BLUTOOTH_MODULE, Blutooth_Tx_Data, strlen(Blutooth_Tx_Data), 100);    
  61              		.loc 1 11 59
  62 000c 0948     		ldr	r0, .L2+4
  63 000e FFF7FEFF 		bl	strlen
  64 0012 0346     		mov	r3, r0
  65              		.loc 1 11 5
  66 0014 9AB2     		uxth	r2, r3
  67 0016 6423     		movs	r3, #100
  68 0018 0649     		ldr	r1, .L2+4
  69 001a 0748     		ldr	r0, .L2+8
  70 001c FFF7FEFF 		bl	HAL_UART_Transmit
  12:Core/Src/blutooth.c ****     HAL_UART_Receive_IT(&BLUTOOTH_MODULE,&Blutooth_Rx_Data,1);
  71              		.loc 1 12 5
  72 0020 0122     		movs	r2, #1
  73 0022 0649     		ldr	r1, .L2+12
  74 0024 0448     		ldr	r0, .L2+8
  75 0026 FFF7FEFF 		bl	HAL_UART_Receive_IT
  13:Core/Src/blutooth.c **** }
  76              		.loc 1 13 1
  77 002a 00BF     		nop
  78 002c 80BD     		pop	{r7, pc}
  79              	.L3:
  80 002e 00BF     		.align	2
  81              	.L2:
  82 0030 00000000 		.word	.LC0
  83 0034 00000000 		.word	Blutooth_Tx_Data
  84 0038 00000000 		.word	huart2
  85 003c 00000000 		.word	Blutooth_Rx_Data
  86              		.cfi_endproc
  87              	.LFE68:
  89              		.section	.text.Blutooth_Communication,"ax",%progbits
  90              		.align	1
  91              		.global	Blutooth_Communication
  92              		.syntax unified
  93              		.thumb
  94              		.thumb_func
  96              	Blutooth_Communication:
ARM GAS  C:\Users\jisu8\AppData\Local\Temp\ccmecjuR.s 			page 3


  97              	.LFB69:
  14:Core/Src/blutooth.c **** 
  15:Core/Src/blutooth.c **** void Blutooth_Communication(void)
  16:Core/Src/blutooth.c **** {
  98              		.loc 1 16 1
  99              		.cfi_startproc
 100              		@ args = 0, pretend = 0, frame = 0
 101              		@ frame_needed = 1, uses_anonymous_args = 0
 102              		@ link register save eliminated.
 103 0000 80B4     		push	{r7}
 104              	.LCFI2:
 105              		.cfi_def_cfa_offset 4
 106              		.cfi_offset 7, -4
 107 0002 00AF     		add	r7, sp, #0
 108              	.LCFI3:
 109              		.cfi_def_cfa_register 7
  17:Core/Src/blutooth.c **** 
  18:Core/Src/blutooth.c **** }
 110              		.loc 1 18 1
 111 0004 00BF     		nop
 112 0006 BD46     		mov	sp, r7
 113              	.LCFI4:
 114              		.cfi_def_cfa_register 13
 115              		@ sp needed
 116 0008 80BC     		pop	{r7}
 117              	.LCFI5:
 118              		.cfi_restore 7
 119              		.cfi_def_cfa_offset 0
 120 000a 7047     		bx	lr
 121              		.cfi_endproc
 122              	.LFE69:
 124              		.section	.rodata
 125              		.align	2
 126              	.LC1:
 127 0024 52656365 		.ascii	"Receive Menu information is : \000"
 127      69766520 
 127      4D656E75 
 127      20696E66 
 127      6F726D61 
 128 0043 00       		.align	2
 129              	.LC2:
 130 0044 0A0A00   		.ascii	"\012\012\000"
 131              		.section	.text.HAL_UART_RxCpltCallback,"ax",%progbits
 132              		.align	1
 133              		.global	HAL_UART_RxCpltCallback
 134              		.syntax unified
 135              		.thumb
 136              		.thumb_func
 138              	HAL_UART_RxCpltCallback:
 139              	.LFB70:
  19:Core/Src/blutooth.c **** 
  20:Core/Src/blutooth.c **** void HAL_UART_RxCpltCallback(UART_HandleTypeDef *huart)
  21:Core/Src/blutooth.c **** {
 140              		.loc 1 21 1
 141              		.cfi_startproc
 142              		@ args = 0, pretend = 0, frame = 8
 143              		@ frame_needed = 1, uses_anonymous_args = 0
ARM GAS  C:\Users\jisu8\AppData\Local\Temp\ccmecjuR.s 			page 4


 144 0000 80B5     		push	{r7, lr}
 145              	.LCFI6:
 146              		.cfi_def_cfa_offset 8
 147              		.cfi_offset 7, -8
 148              		.cfi_offset 14, -4
 149 0002 82B0     		sub	sp, sp, #8
 150              	.LCFI7:
 151              		.cfi_def_cfa_offset 16
 152 0004 00AF     		add	r7, sp, #0
 153              	.LCFI8:
 154              		.cfi_def_cfa_register 7
 155 0006 7860     		str	r0, [r7, #4]
  22:Core/Src/blutooth.c ****     if(huart->Instance == USART2)
 156              		.loc 1 22 13
 157 0008 7B68     		ldr	r3, [r7, #4]
 158 000a 1B68     		ldr	r3, [r3]
 159              		.loc 1 22 7
 160 000c 234A     		ldr	r2, .L13
 161 000e 9342     		cmp	r3, r2
 162 0010 3FD1     		bne	.L12
  23:Core/Src/blutooth.c ****     {
  24:Core/Src/blutooth.c ****         if(((Blutooth_Rx_Data[0] >= '0')&&(Blutooth_Rx_Data[0] <= '9'))||
 163              		.loc 1 24 30
 164 0012 234B     		ldr	r3, .L13+4
 165 0014 1B78     		ldrb	r3, [r3]	@ zero_extendqisi2
 166              		.loc 1 24 11
 167 0016 2F2B     		cmp	r3, #47
 168 0018 03D9     		bls	.L7
 169              		.loc 1 24 60 discriminator 1
 170 001a 214B     		ldr	r3, .L13+4
 171 001c 1B78     		ldrb	r3, [r3]	@ zero_extendqisi2
 172              		.loc 1 24 41 discriminator 1
 173 001e 392B     		cmp	r3, #57
 174 0020 0FD9     		bls	.L8
 175              	.L7:
  25:Core/Src/blutooth.c ****            ((Blutooth_Rx_Data[0] >= 'a')&&(Blutooth_Rx_Data[0] <= 'z'))||
 176              		.loc 1 25 30 discriminator 3
 177 0022 1F4B     		ldr	r3, .L13+4
 178 0024 1B78     		ldrb	r3, [r3]	@ zero_extendqisi2
  24:Core/Src/blutooth.c ****            ((Blutooth_Rx_Data[0] >= 'a')&&(Blutooth_Rx_Data[0] <= 'z'))||
 179              		.loc 1 24 72 discriminator 3
 180 0026 602B     		cmp	r3, #96
 181 0028 03D9     		bls	.L9
 182              		.loc 1 25 60
 183 002a 1D4B     		ldr	r3, .L13+4
 184 002c 1B78     		ldrb	r3, [r3]	@ zero_extendqisi2
 185              		.loc 1 25 41
 186 002e 7A2B     		cmp	r3, #122
 187 0030 07D9     		bls	.L8
 188              	.L9:
  26:Core/Src/blutooth.c ****            ((Blutooth_Rx_Data[0] >= 'A')&&(Blutooth_Rx_Data[0] <= 'Z')))
 189              		.loc 1 26 30 discriminator 1
 190 0032 1B4B     		ldr	r3, .L13+4
 191 0034 1B78     		ldrb	r3, [r3]	@ zero_extendqisi2
  25:Core/Src/blutooth.c ****            ((Blutooth_Rx_Data[0] >= 'a')&&(Blutooth_Rx_Data[0] <= 'z'))||
 192              		.loc 1 25 72 discriminator 1
 193 0036 402B     		cmp	r3, #64
ARM GAS  C:\Users\jisu8\AppData\Local\Temp\ccmecjuR.s 			page 5


 194 0038 25D9     		bls	.L10
 195              		.loc 1 26 60
 196 003a 194B     		ldr	r3, .L13+4
 197 003c 1B78     		ldrb	r3, [r3]	@ zero_extendqisi2
 198              		.loc 1 26 41
 199 003e 5A2B     		cmp	r3, #90
 200 0040 21D8     		bhi	.L10
 201              	.L8:
  27:Core/Src/blutooth.c ****         {
  28:Core/Src/blutooth.c ****             sprintf(Blutooth_Tx_Data,"Receive Menu information is : ");
 202              		.loc 1 28 13
 203 0042 1849     		ldr	r1, .L13+8
 204 0044 1848     		ldr	r0, .L13+12
 205 0046 FFF7FEFF 		bl	sprintf
  29:Core/Src/blutooth.c ****             HAL_UART_Transmit(&BLUTOOTH_MODULE,Blutooth_Tx_Data,strlen(Blutooth_Tx_Data), 100);
 206              		.loc 1 29 65
 207 004a 1748     		ldr	r0, .L13+12
 208 004c FFF7FEFF 		bl	strlen
 209 0050 0346     		mov	r3, r0
 210              		.loc 1 29 13
 211 0052 9AB2     		uxth	r2, r3
 212 0054 6423     		movs	r3, #100
 213 0056 1449     		ldr	r1, .L13+12
 214 0058 1448     		ldr	r0, .L13+16
 215 005a FFF7FEFF 		bl	HAL_UART_Transmit
  30:Core/Src/blutooth.c ****             HAL_UART_Transmit(&BLUTOOTH_MODULE,&Blutooth_Rx_Data,1, 100);
 216              		.loc 1 30 13
 217 005e 6423     		movs	r3, #100
 218 0060 0122     		movs	r2, #1
 219 0062 0F49     		ldr	r1, .L13+4
 220 0064 1148     		ldr	r0, .L13+16
 221 0066 FFF7FEFF 		bl	HAL_UART_Transmit
  31:Core/Src/blutooth.c ****             sprintf(Blutooth_Tx_Data,"\n\n");
 222              		.loc 1 31 13
 223 006a 1149     		ldr	r1, .L13+20
 224 006c 0E48     		ldr	r0, .L13+12
 225 006e FFF7FEFF 		bl	sprintf
  32:Core/Src/blutooth.c ****             HAL_UART_Transmit(&BLUTOOTH_MODULE,Blutooth_Tx_Data,strlen(Blutooth_Tx_Data), 100);
 226              		.loc 1 32 65
 227 0072 0D48     		ldr	r0, .L13+12
 228 0074 FFF7FEFF 		bl	strlen
 229 0078 0346     		mov	r3, r0
 230              		.loc 1 32 13
 231 007a 9AB2     		uxth	r2, r3
 232 007c 6423     		movs	r3, #100
 233 007e 0A49     		ldr	r1, .L13+12
 234 0080 0A48     		ldr	r0, .L13+16
 235 0082 FFF7FEFF 		bl	HAL_UART_Transmit
 236              	.L10:
  33:Core/Src/blutooth.c ****         }
  34:Core/Src/blutooth.c **** 
  35:Core/Src/blutooth.c ****         HAL_UART_Receive_IT(&BLUTOOTH_MODULE,&Blutooth_Rx_Data,1);
 237              		.loc 1 35 9
 238 0086 0122     		movs	r2, #1
 239 0088 0549     		ldr	r1, .L13+4
 240 008a 0848     		ldr	r0, .L13+16
 241 008c FFF7FEFF 		bl	HAL_UART_Receive_IT
ARM GAS  C:\Users\jisu8\AppData\Local\Temp\ccmecjuR.s 			page 6


  36:Core/Src/blutooth.c ****     }
  37:Core/Src/blutooth.c ****     return;
 242              		.loc 1 37 5
 243 0090 00BF     		nop
 244              	.L12:
 245 0092 00BF     		nop
  38:Core/Src/blutooth.c **** }...
 246              		.loc 1 38 1
 247 0094 0837     		adds	r7, r7, #8
 248              	.LCFI9:
 249              		.cfi_def_cfa_offset 8
 250 0096 BD46     		mov	sp, r7
 251              	.LCFI10:
 252              		.cfi_def_cfa_register 13
 253              		@ sp needed
 254 0098 80BD     		pop	{r7, pc}
 255              	.L14:
 256 009a 00BF     		.align	2
 257              	.L13:
 258 009c 00440040 		.word	1073759232
 259 00a0 00000000 		.word	Blutooth_Rx_Data
 260 00a4 24000000 		.word	.LC1
 261 00a8 00000000 		.word	Blutooth_Tx_Data
 262 00ac 00000000 		.word	huart2
 263 00b0 44000000 		.word	.LC2
 264              		.cfi_endproc
 265              	.LFE70:
 267              		.text
 268              	.Letext0:
 269              		.file 2 "d:\\3.tools\\arm_gcc_toolchain\\arm-none-eabi\\include\\machine\\_default_types.h"
 270              		.file 3 "d:\\3.tools\\arm_gcc_toolchain\\arm-none-eabi\\include\\sys\\_stdint.h"
 271              		.file 4 "Drivers/CMSIS/Device/ST/STM32F1xx/Include/stm32f103xb.h"
 272              		.file 5 "Drivers/STM32F1xx_HAL_Driver/Inc/stm32f1xx_hal_def.h"
 273              		.file 6 "Drivers/STM32F1xx_HAL_Driver/Inc/stm32f1xx_hal_dma.h"
 274              		.file 7 "Drivers/STM32F1xx_HAL_Driver/Inc/stm32f1xx_hal_uart.h"
 275              		.file 8 "Core/Inc/vardef.h"
 276              		.file 9 "Core/Inc/main.h"
ARM GAS  C:\Users\jisu8\AppData\Local\Temp\ccmecjuR.s 			page 7

