ARM GAS  C:\Users\jisu8\AppData\Local\Temp\ccxQ4oye.s 			page 1


   1              		.cpu cortex-m3
   2              		.arch armv7-m
   3              		.fpu softvfp
   4              		.eabi_attribute 20, 1
   5              		.eabi_attribute 21, 1
   6              		.eabi_attribute 23, 3
   7              		.eabi_attribute 24, 1
   8              		.eabi_attribute 25, 1
   9              		.eabi_attribute 26, 1
  10              		.eabi_attribute 30, 6
  11              		.eabi_attribute 34, 1
  12              		.eabi_attribute 18, 4
  13              		.file	"oled.c"
  14              		.text
  15              	.Ltext0:
  16              		.cfi_sections	.debug_frame
  17              		.global	OLED_Address
  18              		.section	.bss.OLED_Address,"aw",%nobits
  21              	OLED_Address:
  22 0000 00       		.space	1
  23              		.global	OLED
  24              		.section	.bss.OLED,"aw",%nobits
  25              		.align	2
  28              	OLED:
  29 0000 00000000 		.space	4
  30              		.global	OLED_WRITE
  31              		.section	.data.OLED_WRITE,"aw"
  32              		.align	2
  35              	OLED_WRITE:
  36 0000 48454C4F 		.ascii	"HELO\000"
  36      00
  37              		.global	Tx_data
  38              		.section	.bss.Tx_data,"aw",%nobits
  39              		.align	2
  42              	Tx_data:
  43 0000 00000000 		.space	100
  43      00000000 
  43      00000000 
  43      00000000 
  43      00000000 
  44              		.section	.bss.OLED_Buffer,"aw",%nobits
  45              		.align	2
  48              	OLED_Buffer:
  49 0000 00000000 		.space	512
  49      00000000 
  49      00000000 
  49      00000000 
  49      00000000 
  50              		.section	.text.OLED_FindAddress,"ax",%progbits
  51              		.align	1
  52              		.global	OLED_FindAddress
  53              		.syntax unified
  54              		.thumb
  55              		.thumb_func
  57              	OLED_FindAddress:
  58              	.LFB65:
  59              		.file 1 "Core/Src/oled.c"
ARM GAS  C:\Users\jisu8\AppData\Local\Temp\ccxQ4oye.s 			page 2


   1:Core/Src/oled.c **** #include "oled.h"
   2:Core/Src/oled.c **** uint8 OLED_Address;
   3:Core/Src/oled.c **** OLED_t OLED;
   4:Core/Src/oled.c **** char OLED_WRITE[] = "HELO";
   5:Core/Src/oled.c **** 
   6:Core/Src/oled.c **** uint8 Tx_data[100]; 
   7:Core/Src/oled.c **** /* OLED data buffer */
   8:Core/Src/oled.c **** static uint8 OLED_Buffer[OLED_WIDTH * OLED_HEIGHT / 8];
   9:Core/Src/oled.c **** static void Clear_TxBuffer(void);
  10:Core/Src/oled.c **** static void Print_TxBuffer(void);
  11:Core/Src/oled.c **** static void OLED_Write_Command(uint8 command);
  12:Core/Src/oled.c **** static void OLED_Fill_Screen(OLED_COLOR_t color);
  13:Core/Src/oled.c **** static void OLED_Update_Screen(void);
  14:Core/Src/oled.c **** static void OLED_DrawPixel(uint16 x, uint16 y, OLED_COLOR_t color);
  15:Core/Src/oled.c **** static char OLED_Set_Char(char ch, OLED_Font_t* Font, OLED_COLOR_t color);
  16:Core/Src/oled.c **** static char OLED_Set_Str(char* str, OLED_Font_t* Font, OLED_COLOR_t color); 
  17:Core/Src/oled.c **** static void OLED_Set_X_Y(uint16 x, uint16 y);
  18:Core/Src/oled.c **** 
  19:Core/Src/oled.c **** void OLED_FindAddress(void)
  20:Core/Src/oled.c **** {
  60              		.loc 1 20 1
  61              		.cfi_startproc
  62              		@ args = 0, pretend = 0, frame = 0
  63              		@ frame_needed = 1, uses_anonymous_args = 0
  64 0000 80B5     		push	{r7, lr}
  65              	.LCFI0:
  66              		.cfi_def_cfa_offset 8
  67              		.cfi_offset 7, -8
  68              		.cfi_offset 14, -4
  69 0002 00AF     		add	r7, sp, #0
  70              	.LCFI1:
  71              		.cfi_def_cfa_register 7
  21:Core/Src/oled.c ****     if(HAL_OK == HAL_I2C_IsDeviceReady(&OLED_HW_MODULE,OLED_Address,3,10))
  72              		.loc 1 21 18
  73 0004 094B     		ldr	r3, .L4
  74 0006 1B78     		ldrb	r3, [r3]	@ zero_extendqisi2
  75 0008 99B2     		uxth	r1, r3
  76 000a 0A23     		movs	r3, #10
  77 000c 0322     		movs	r2, #3
  78 000e 0848     		ldr	r0, .L4+4
  79 0010 FFF7FEFF 		bl	HAL_I2C_IsDeviceReady
  80 0014 0346     		mov	r3, r0
  81              		.loc 1 21 7
  82 0016 002B     		cmp	r3, #0
  83 0018 05D0     		beq	.L3
  22:Core/Src/oled.c ****     {
  23:Core/Src/oled.c ****         /*do noThing*/
  24:Core/Src/oled.c ****     }
  25:Core/Src/oled.c ****     else
  26:Core/Src/oled.c ****     {
  27:Core/Src/oled.c ****         OLED_Address++;
  84              		.loc 1 27 21
  85 001a 044B     		ldr	r3, .L4
  86 001c 1B78     		ldrb	r3, [r3]	@ zero_extendqisi2
  87 001e 0133     		adds	r3, r3, #1
  88 0020 DAB2     		uxtb	r2, r3
  89 0022 024B     		ldr	r3, .L4
ARM GAS  C:\Users\jisu8\AppData\Local\Temp\ccxQ4oye.s 			page 3


  90 0024 1A70     		strb	r2, [r3]
  91              	.L3:
  28:Core/Src/oled.c ****     }
  29:Core/Src/oled.c **** }
  92              		.loc 1 29 1
  93 0026 00BF     		nop
  94 0028 80BD     		pop	{r7, pc}
  95              	.L5:
  96 002a 00BF     		.align	2
  97              	.L4:
  98 002c 00000000 		.word	OLED_Address
  99 0030 00000000 		.word	hi2c1
 100              		.cfi_endproc
 101              	.LFE65:
 103              		.section	.rodata
 104              		.align	2
 105              	.LC0:
 106 0000 68747470 		.ascii	"https://www.allprime.co.kr\000"
 106      733A2F2F 
 106      7777772E 
 106      616C6C70 
 106      72696D65 
 107              		.section	.text.OLED_Init,"ax",%progbits
 108              		.align	1
 109              		.global	OLED_Init
 110              		.syntax unified
 111              		.thumb
 112              		.thumb_func
 114              	OLED_Init:
 115              	.LFB66:
  30:Core/Src/oled.c **** 
  31:Core/Src/oled.c **** void OLED_Init(void)
  32:Core/Src/oled.c **** {
 116              		.loc 1 32 1
 117              		.cfi_startproc
 118              		@ args = 0, pretend = 0, frame = 8
 119              		@ frame_needed = 1, uses_anonymous_args = 0
 120 0000 80B5     		push	{r7, lr}
 121              	.LCFI2:
 122              		.cfi_def_cfa_offset 8
 123              		.cfi_offset 7, -8
 124              		.cfi_offset 14, -4
 125 0002 82B0     		sub	sp, sp, #8
 126              	.LCFI3:
 127              		.cfi_def_cfa_offset 16
 128 0004 00AF     		add	r7, sp, #0
 129              	.LCFI4:
 130              		.cfi_def_cfa_register 7
  33:Core/Src/oled.c ****     uint8 length;
  34:Core/Src/oled.c ****  /* Init LCD */
  35:Core/Src/oled.c ****     OLED_Write_Command(0xAE); // Set display off
 131              		.loc 1 35 5
 132 0006 AE20     		movs	r0, #174
 133 0008 FFF7FEFF 		bl	OLED_Write_Command
  36:Core/Src/oled.c ****     OLED_Write_Command(0xA8); // Set multiplex ratio
 134              		.loc 1 36 5
 135 000c A820     		movs	r0, #168
ARM GAS  C:\Users\jisu8\AppData\Local\Temp\ccxQ4oye.s 			page 4


 136 000e FFF7FEFF 		bl	OLED_Write_Command
  37:Core/Src/oled.c ****     OLED_Write_Command(0x1F); // -- from default 63 to 31 (i.e. 32MUX)
 137              		.loc 1 37 5
 138 0012 1F20     		movs	r0, #31
 139 0014 FFF7FEFF 		bl	OLED_Write_Command
  38:Core/Src/oled.c ****     OLED_Write_Command(0xD3); // Set display offset
 140              		.loc 1 38 5
 141 0018 D320     		movs	r0, #211
 142 001a FFF7FEFF 		bl	OLED_Write_Command
  39:Core/Src/oled.c ****     OLED_Write_Command(0x00); // -- no offset
 143              		.loc 1 39 5
 144 001e 0020     		movs	r0, #0
 145 0020 FFF7FEFF 		bl	OLED_Write_Command
  40:Core/Src/oled.c ****     OLED_Write_Command(0x40); // Set display start line
 146              		.loc 1 40 5
 147 0024 4020     		movs	r0, #64
 148 0026 FFF7FEFF 		bl	OLED_Write_Command
  41:Core/Src/oled.c ****     OLED_Write_Command(0xA1); // Set segment re-map, column address 127 is mapped to SEG0
 149              		.loc 1 41 5
 150 002a A120     		movs	r0, #161
 151 002c FFF7FEFF 		bl	OLED_Write_Command
  42:Core/Src/oled.c ****     OLED_Write_Command(0xC8); // Set COM output scan direction - remapped mode
 152              		.loc 1 42 5
 153 0030 C820     		movs	r0, #200
 154 0032 FFF7FEFF 		bl	OLED_Write_Command
  43:Core/Src/oled.c ****     OLED_Write_Command(0x81); // Set contrast control for BANK0
 155              		.loc 1 43 5
 156 0036 8120     		movs	r0, #129
 157 0038 FFF7FEFF 		bl	OLED_Write_Command
  44:Core/Src/oled.c ****     OLED_Write_Command(0x7F); // -- range 0x00 to 0xFF => 50%
 158              		.loc 1 44 5
 159 003c 7F20     		movs	r0, #127
 160 003e FFF7FEFF 		bl	OLED_Write_Command
  45:Core/Src/oled.c ****     OLED_Write_Command(0xA4); // Enable display outputs according to the GDDRAM contents.
 161              		.loc 1 45 5
 162 0042 A420     		movs	r0, #164
 163 0044 FFF7FEFF 		bl	OLED_Write_Command
  46:Core/Src/oled.c ****     OLED_Write_Command(0xA6); // Set normal display
 164              		.loc 1 46 5
 165 0048 A620     		movs	r0, #166
 166 004a FFF7FEFF 		bl	OLED_Write_Command
  47:Core/Src/oled.c ****     OLED_Write_Command(0xD5); // Set display clock divide ration and oscillator frequency
 167              		.loc 1 47 5
 168 004e D520     		movs	r0, #213
 169 0050 FFF7FEFF 		bl	OLED_Write_Command
  48:Core/Src/oled.c ****     OLED_Write_Command(0x80); // -- frequency (1000 - default); display clock divide ratio (0000 - 
 170              		.loc 1 48 5
 171 0054 8020     		movs	r0, #128
 172 0056 FFF7FEFF 		bl	OLED_Write_Command
  49:Core/Src/oled.c ****     OLED_Write_Command(0x8D); // Charge pump setting
 173              		.loc 1 49 5
 174 005a 8D20     		movs	r0, #141
 175 005c FFF7FEFF 		bl	OLED_Write_Command
  50:Core/Src/oled.c ****     OLED_Write_Command(0x14); // -- enable charge pump
 176              		.loc 1 50 5
 177 0060 1420     		movs	r0, #20
 178 0062 FFF7FEFF 		bl	OLED_Write_Command
ARM GAS  C:\Users\jisu8\AppData\Local\Temp\ccxQ4oye.s 			page 5


  51:Core/Src/oled.c **** 
  52:Core/Src/oled.c ****     OLED_Write_Command(0x2E); // Deactivate scroll
 179              		.loc 1 52 5
 180 0066 2E20     		movs	r0, #46
 181 0068 FFF7FEFF 		bl	OLED_Write_Command
  53:Core/Src/oled.c ****     OLED_Write_Command(0x20); // Set memory addressing mode
 182              		.loc 1 53 5
 183 006c 2020     		movs	r0, #32
 184 006e FFF7FEFF 		bl	OLED_Write_Command
  54:Core/Src/oled.c ****     OLED_Write_Command(0x10); // -- Page Addressing Mode (RESET)
 185              		.loc 1 54 5
 186 0072 1020     		movs	r0, #16
 187 0074 FFF7FEFF 		bl	OLED_Write_Command
  55:Core/Src/oled.c ****     OLED_Write_Command(0xDA); // Set COM pins hardware configuration
 188              		.loc 1 55 5
 189 0078 DA20     		movs	r0, #218
 190 007a FFF7FEFF 		bl	OLED_Write_Command
  56:Core/Src/oled.c ****     OLED_Write_Command(0x02); // --
 191              		.loc 1 56 5
 192 007e 0220     		movs	r0, #2
 193 0080 FFF7FEFF 		bl	OLED_Write_Command
  57:Core/Src/oled.c ****     OLED_Write_Command(0xD9); // Set pre-charge period
 194              		.loc 1 57 5
 195 0084 D920     		movs	r0, #217
 196 0086 FFF7FEFF 		bl	OLED_Write_Command
  58:Core/Src/oled.c ****     OLED_Write_Command(0x22); // --
 197              		.loc 1 58 5
 198 008a 2220     		movs	r0, #34
 199 008c FFF7FEFF 		bl	OLED_Write_Command
  59:Core/Src/oled.c ****     OLED_Write_Command(0xDB); // Set Vcomh deselect level
 200              		.loc 1 59 5
 201 0090 DB20     		movs	r0, #219
 202 0092 FFF7FEFF 		bl	OLED_Write_Command
  60:Core/Src/oled.c ****     OLED_Write_Command(0x20); // -- 0.77 x Vcc (RESET)
 203              		.loc 1 60 5
 204 0096 2020     		movs	r0, #32
 205 0098 FFF7FEFF 		bl	OLED_Write_Command
  61:Core/Src/oled.c **** 
  62:Core/Src/oled.c ****     OLED_Write_Command(0xB0); // Set page start address for page addressing mode
 206              		.loc 1 62 5
 207 009c B020     		movs	r0, #176
 208 009e FFF7FEFF 		bl	OLED_Write_Command
  63:Core/Src/oled.c ****     OLED_Write_Command(0x00); // Set lower column start address for page addressing mode
 209              		.loc 1 63 5
 210 00a2 0020     		movs	r0, #0
 211 00a4 FFF7FEFF 		bl	OLED_Write_Command
  64:Core/Src/oled.c ****     OLED_Write_Command(0x10); // Set higher column start address for page addressing mode
 212              		.loc 1 64 5
 213 00a8 1020     		movs	r0, #16
 214 00aa FFF7FEFF 		bl	OLED_Write_Command
  65:Core/Src/oled.c **** 
  66:Core/Src/oled.c ****     OLED_Write_Command(0xAF); // Set display on    
 215              		.loc 1 66 5
 216 00ae AF20     		movs	r0, #175
 217 00b0 FFF7FEFF 		bl	OLED_Write_Command
  67:Core/Src/oled.c **** 
  68:Core/Src/oled.c ****     OLED_Fill_Screen(OLED_COLOR_BLACK);
ARM GAS  C:\Users\jisu8\AppData\Local\Temp\ccxQ4oye.s 			page 6


 218              		.loc 1 68 5
 219 00b4 0020     		movs	r0, #0
 220 00b6 FFF7FEFF 		bl	OLED_Fill_Screen
  69:Core/Src/oled.c ****     OLED_Update_Screen();
 221              		.loc 1 69 5
 222 00ba FFF7FEFF 		bl	OLED_Update_Screen
  70:Core/Src/oled.c **** 
  71:Core/Src/oled.c ****     Clear_TxBuffer();
 223              		.loc 1 71 5
 224 00be FFF7FEFF 		bl	Clear_TxBuffer
  72:Core/Src/oled.c ****     sprintf(Tx_data,"https://www.allprime.co.kr");
 225              		.loc 1 72 5
 226 00c2 0A49     		ldr	r1, .L7
 227 00c4 0A48     		ldr	r0, .L7+4
 228 00c6 FFF7FEFF 		bl	sprintf
  73:Core/Src/oled.c ****     length = strlen(Tx_data);
 229              		.loc 1 73 14
 230 00ca 0948     		ldr	r0, .L7+4
 231 00cc FFF7FEFF 		bl	strlen
 232 00d0 0346     		mov	r3, r0
 233              		.loc 1 73 12
 234 00d2 FB71     		strb	r3, [r7, #7]
  74:Core/Src/oled.c ****     Tx_data[length] = ' ';
 235              		.loc 1 74 12
 236 00d4 FB79     		ldrb	r3, [r7, #7]	@ zero_extendqisi2
 237              		.loc 1 74 21
 238 00d6 064A     		ldr	r2, .L7+4
 239 00d8 2021     		movs	r1, #32
 240 00da D154     		strb	r1, [r2, r3]
  75:Core/Src/oled.c ****     Print_TxBuffer();
 241              		.loc 1 75 5
 242 00dc FFF7FEFF 		bl	Print_TxBuffer
  76:Core/Src/oled.c ****     
  77:Core/Src/oled.c ****     OLED_Update_Screen();
 243              		.loc 1 77 5
 244 00e0 FFF7FEFF 		bl	OLED_Update_Screen
  78:Core/Src/oled.c **** }
 245              		.loc 1 78 1
 246 00e4 00BF     		nop
 247 00e6 0837     		adds	r7, r7, #8
 248              	.LCFI5:
 249              		.cfi_def_cfa_offset 8
 250 00e8 BD46     		mov	sp, r7
 251              	.LCFI6:
 252              		.cfi_def_cfa_register 13
 253              		@ sp needed
 254 00ea 80BD     		pop	{r7, pc}
 255              	.L8:
 256              		.align	2
 257              	.L7:
 258 00ec 00000000 		.word	.LC0
 259 00f0 00000000 		.word	Tx_data
 260              		.cfi_endproc
 261              	.LFE66:
 263              		.section	.rodata
 264 001b 00       		.align	2
 265              	.LC1:
ARM GAS  C:\Users\jisu8\AppData\Local\Temp\ccxQ4oye.s 			page 7


 266 001c 52756E20 		.ascii	"Run Time : \000"
 266      54696D65 
 266      203A2000 
 267              		.align	2
 268              	.LC2:
 269 0028 54656D70 		.ascii	"Temp     :\000"
 269      20202020 
 269      203A00
 270 0033 00       		.align	2
 271              	.LC3:
 272 0034 604300   		.ascii	"`C\000"
 273 0037 00       		.align	2
 274              	.LC4:
 275 0038 4D656E75 		.ascii	"Menu:\000"
 275      3A00
 276 003e 0000     		.align	2
 277              	.LC5:
 278 0040 434F323A 		.ascii	"CO2:\000"
 278      00
 279 0045 000000   		.align	2
 280              	.LC6:
 281 0048 53656C65 		.ascii	"Select Menu : \000"
 281      6374204D 
 281      656E7520 
 281      3A2000
 282 0057 00       		.align	2
 283              	.LC7:
 284 0058 2020203C 		.ascii	"   < IDLE Mode >  \000"
 284      2049444C 
 284      45204D6F 
 284      6465203E 
 284      202000
 285 006b 00       		.align	2
 286              	.LC8:
 287 006c 4D656E75 		.ascii	"Menu :\000"
 287      203A00
 288              		.section	.text.OLED_Display,"ax",%progbits
 289              		.align	1
 290              		.global	OLED_Display
 291              		.syntax unified
 292              		.thumb
 293              		.thumb_func
 295              	OLED_Display:
 296              	.LFB67:
  79:Core/Src/oled.c **** extern uint16 Temp_Adc_TP_Volt;
  80:Core/Src/oled.c **** extern sint16 Temp_Adc_TP;
  81:Core/Src/oled.c **** extern uint16 Target_Run_Time;
  82:Core/Src/oled.c **** extern uint16 CO2_Data16;
  83:Core/Src/oled.c **** void OLED_Display(void)
  84:Core/Src/oled.c **** {
 297              		.loc 1 84 1
 298              		.cfi_startproc
 299              		@ args = 0, pretend = 0, frame = 16
 300              		@ frame_needed = 1, uses_anonymous_args = 0
 301 0000 80B5     		push	{r7, lr}
 302              	.LCFI7:
 303              		.cfi_def_cfa_offset 8
ARM GAS  C:\Users\jisu8\AppData\Local\Temp\ccxQ4oye.s 			page 8


 304              		.cfi_offset 7, -8
 305              		.cfi_offset 14, -4
 306 0002 84B0     		sub	sp, sp, #16
 307              	.LCFI8:
 308              		.cfi_def_cfa_offset 24
 309 0004 00AF     		add	r7, sp, #0
 310              	.LCFI9:
 311              		.cfi_def_cfa_register 7
  85:Core/Src/oled.c ****     uint8 dummy;
  86:Core/Src/oled.c ****     uint8 n1,n10,n100,n1000;
  87:Core/Src/oled.c ****     uint8 t1,t10,t100,t1000;
  88:Core/Src/oled.c ****     uint16 n0=0;
 312              		.loc 1 88 12
 313 0006 0023     		movs	r3, #0
 314 0008 FB81     		strh	r3, [r7, #14]	@ movhi
  89:Core/Src/oled.c ****     uint16 length;
  90:Core/Src/oled.c ****     sint16 Temp;
  91:Core/Src/oled.c ****     if(switch_mode == SWITCH_MODE_RUN)
 315              		.loc 1 91 20
 316 000a B44B     		ldr	r3, .L23
 317 000c 1B78     		ldrb	r3, [r3]	@ zero_extendqisi2
 318              		.loc 1 91 7
 319 000e 022B     		cmp	r3, #2
 320 0010 40F02082 		bne	.L10
 321              	.LBB2:
  92:Core/Src/oled.c ****     {
  93:Core/Src/oled.c ****         Clear_TxBuffer();
 322              		.loc 1 93 9
 323 0014 FFF7FEFF 		bl	Clear_TxBuffer
  94:Core/Src/oled.c ****         sprintf(Tx_data,"Run Time : ");
 324              		.loc 1 94 9
 325 0018 B149     		ldr	r1, .L23+4
 326 001a B248     		ldr	r0, .L23+8
 327 001c FFF7FEFF 		bl	sprintf
  95:Core/Src/oled.c ****         length = strlen(Tx_data);
 328              		.loc 1 95 18
 329 0020 B048     		ldr	r0, .L23+8
 330 0022 FFF7FEFF 		bl	strlen
 331 0026 0346     		mov	r3, r0
 332              		.loc 1 95 16
 333 0028 BB81     		strh	r3, [r7, #12]	@ movhi
  96:Core/Src/oled.c ****         t1 = ((Target_Run_Time/100)%60)%10;
 334              		.loc 1 96 12
 335 002a AF4B     		ldr	r3, .L23+12
 336 002c 1B88     		ldrh	r3, [r3]
 337 002e AF4A     		ldr	r2, .L23+16
 338 0030 A2FB0323 		umull	r2, r3, r2, r3
 339 0034 5B09     		lsrs	r3, r3, #5
 340 0036 9AB2     		uxth	r2, r3
 341 0038 AD4B     		ldr	r3, .L23+20
 342 003a A3FB0213 		umull	r1, r3, r3, r2
 343 003e 5909     		lsrs	r1, r3, #5
 344 0040 0B46     		mov	r3, r1
 345 0042 1B01     		lsls	r3, r3, #4
 346 0044 5B1A     		subs	r3, r3, r1
 347 0046 9B00     		lsls	r3, r3, #2
 348 0048 D31A     		subs	r3, r2, r3
ARM GAS  C:\Users\jisu8\AppData\Local\Temp\ccxQ4oye.s 			page 9


 349 004a 9AB2     		uxth	r2, r3
 350 004c A94B     		ldr	r3, .L23+24
 351 004e A3FB0213 		umull	r1, r3, r3, r2
 352 0052 D908     		lsrs	r1, r3, #3
 353 0054 0B46     		mov	r3, r1
 354 0056 9B00     		lsls	r3, r3, #2
 355 0058 0B44     		add	r3, r3, r1
 356 005a 5B00     		lsls	r3, r3, #1
 357 005c D31A     		subs	r3, r2, r3
 358 005e 9BB2     		uxth	r3, r3
 359 0060 FB71     		strb	r3, [r7, #7]
  97:Core/Src/oled.c ****         t10 = (((Target_Run_Time/100)%60)/10)%10;
 360              		.loc 1 97 13
 361 0062 A14B     		ldr	r3, .L23+12
 362 0064 1B88     		ldrh	r3, [r3]
 363 0066 A14A     		ldr	r2, .L23+16
 364 0068 A2FB0323 		umull	r2, r3, r2, r3
 365 006c 5B09     		lsrs	r3, r3, #5
 366 006e 9AB2     		uxth	r2, r3
 367 0070 9F4B     		ldr	r3, .L23+20
 368 0072 A3FB0213 		umull	r1, r3, r3, r2
 369 0076 5909     		lsrs	r1, r3, #5
 370 0078 0B46     		mov	r3, r1
 371 007a 1B01     		lsls	r3, r3, #4
 372 007c 5B1A     		subs	r3, r3, r1
 373 007e 9B00     		lsls	r3, r3, #2
 374 0080 D31A     		subs	r3, r2, r3
 375 0082 9BB2     		uxth	r3, r3
 376 0084 9B4A     		ldr	r2, .L23+24
 377 0086 A2FB0323 		umull	r2, r3, r2, r3
 378 008a DB08     		lsrs	r3, r3, #3
 379 008c 9AB2     		uxth	r2, r3
 380 008e 994B     		ldr	r3, .L23+24
 381 0090 A3FB0213 		umull	r1, r3, r3, r2
 382 0094 D908     		lsrs	r1, r3, #3
 383 0096 0B46     		mov	r3, r1
 384 0098 9B00     		lsls	r3, r3, #2
 385 009a 0B44     		add	r3, r3, r1
 386 009c 5B00     		lsls	r3, r3, #1
 387 009e D31A     		subs	r3, r2, r3
 388 00a0 9BB2     		uxth	r3, r3
 389 00a2 BB71     		strb	r3, [r7, #6]
  98:Core/Src/oled.c ****         t100 = (Target_Run_Time/100/60)%10;
 390              		.loc 1 98 14
 391 00a4 904B     		ldr	r3, .L23+12
 392 00a6 1B88     		ldrh	r3, [r3]
 393 00a8 934A     		ldr	r2, .L23+28
 394 00aa A2FB0323 		umull	r2, r3, r2, r3
 395 00ae DB09     		lsrs	r3, r3, #7
 396 00b0 9AB2     		uxth	r2, r3
 397 00b2 904B     		ldr	r3, .L23+24
 398 00b4 A3FB0213 		umull	r1, r3, r3, r2
 399 00b8 D908     		lsrs	r1, r3, #3
 400 00ba 0B46     		mov	r3, r1
 401 00bc 9B00     		lsls	r3, r3, #2
 402 00be 0B44     		add	r3, r3, r1
 403 00c0 5B00     		lsls	r3, r3, #1
ARM GAS  C:\Users\jisu8\AppData\Local\Temp\ccxQ4oye.s 			page 10


 404 00c2 D31A     		subs	r3, r2, r3
 405 00c4 9BB2     		uxth	r3, r3
 406 00c6 7B71     		strb	r3, [r7, #5]
  99:Core/Src/oled.c ****         t1000 = ((Target_Run_Time/100/60)/10)%10;
 407              		.loc 1 99 15
 408 00c8 874B     		ldr	r3, .L23+12
 409 00ca 1B88     		ldrh	r3, [r3]
 410 00cc 8B4A     		ldr	r2, .L23+32
 411 00ce A2FB0323 		umull	r2, r3, r2, r3
 412 00d2 9B0B     		lsrs	r3, r3, #14
 413 00d4 9AB2     		uxth	r2, r3
 414 00d6 874B     		ldr	r3, .L23+24
 415 00d8 A3FB0213 		umull	r1, r3, r3, r2
 416 00dc D908     		lsrs	r1, r3, #3
 417 00de 0B46     		mov	r3, r1
 418 00e0 9B00     		lsls	r3, r3, #2
 419 00e2 0B44     		add	r3, r3, r1
 420 00e4 5B00     		lsls	r3, r3, #1
 421 00e6 D31A     		subs	r3, r2, r3
 422 00e8 9BB2     		uxth	r3, r3
 423 00ea 3B71     		strb	r3, [r7, #4]
 100:Core/Src/oled.c ****         Tx_data[length] = t1000 + 16 + 32;
 424              		.loc 1 100 16
 425 00ec BB89     		ldrh	r3, [r7, #12]
 426              		.loc 1 100 38
 427 00ee 3A79     		ldrb	r2, [r7, #4]
 428 00f0 3032     		adds	r2, r2, #48
 429 00f2 D1B2     		uxtb	r1, r2
 430              		.loc 1 100 25
 431 00f4 7B4A     		ldr	r2, .L23+8
 432 00f6 D154     		strb	r1, [r2, r3]
 101:Core/Src/oled.c ****         Tx_data[length+1] = t100 + 16 + 32;
 433              		.loc 1 101 23
 434 00f8 BB89     		ldrh	r3, [r7, #12]
 435 00fa 0133     		adds	r3, r3, #1
 436              		.loc 1 101 39
 437 00fc 7A79     		ldrb	r2, [r7, #5]
 438 00fe 3032     		adds	r2, r2, #48
 439 0100 D1B2     		uxtb	r1, r2
 440              		.loc 1 101 27
 441 0102 784A     		ldr	r2, .L23+8
 442 0104 D154     		strb	r1, [r2, r3]
 102:Core/Src/oled.c ****         Tx_data[length+2] = ':';        
 443              		.loc 1 102 23
 444 0106 BB89     		ldrh	r3, [r7, #12]
 445 0108 0233     		adds	r3, r3, #2
 446              		.loc 1 102 27
 447 010a 764A     		ldr	r2, .L23+8
 448 010c 3A21     		movs	r1, #58
 449 010e D154     		strb	r1, [r2, r3]
 103:Core/Src/oled.c ****         Tx_data[length+3] = t10 + 16 + 32;
 450              		.loc 1 103 23
 451 0110 BB89     		ldrh	r3, [r7, #12]
 452 0112 0333     		adds	r3, r3, #3
 453              		.loc 1 103 38
 454 0114 BA79     		ldrb	r2, [r7, #6]
 455 0116 3032     		adds	r2, r2, #48
ARM GAS  C:\Users\jisu8\AppData\Local\Temp\ccxQ4oye.s 			page 11


 456 0118 D1B2     		uxtb	r1, r2
 457              		.loc 1 103 27
 458 011a 724A     		ldr	r2, .L23+8
 459 011c D154     		strb	r1, [r2, r3]
 104:Core/Src/oled.c ****         Tx_data[length+4] = t1 + 16 + 32;
 460              		.loc 1 104 23
 461 011e BB89     		ldrh	r3, [r7, #12]
 462 0120 0433     		adds	r3, r3, #4
 463              		.loc 1 104 37
 464 0122 FA79     		ldrb	r2, [r7, #7]
 465 0124 3032     		adds	r2, r2, #48
 466 0126 D1B2     		uxtb	r1, r2
 467              		.loc 1 104 27
 468 0128 6E4A     		ldr	r2, .L23+8
 469 012a D154     		strb	r1, [r2, r3]
 105:Core/Src/oled.c ****         length = length + 7;
 470              		.loc 1 105 16
 471 012c BB89     		ldrh	r3, [r7, #12]	@ movhi
 472 012e 0733     		adds	r3, r3, #7
 473 0130 BB81     		strh	r3, [r7, #12]	@ movhi
 106:Core/Src/oled.c ****         sprintf(&Tx_data[length],"Temp     :");
 474              		.loc 1 106 25
 475 0132 BB89     		ldrh	r3, [r7, #12]
 476              		.loc 1 106 17
 477 0134 6B4A     		ldr	r2, .L23+8
 478 0136 1344     		add	r3, r3, r2
 479              		.loc 1 106 9
 480 0138 7149     		ldr	r1, .L23+36
 481 013a 1846     		mov	r0, r3
 482 013c FFF7FEFF 		bl	sprintf
 107:Core/Src/oled.c ****         length = length+8; 
 483              		.loc 1 107 16
 484 0140 BB89     		ldrh	r3, [r7, #12]	@ movhi
 485 0142 0833     		adds	r3, r3, #8
 486 0144 BB81     		strh	r3, [r7, #12]	@ movhi
 108:Core/Src/oled.c ****         Temp = Temp_Adc_TP;
 487              		.loc 1 108 14
 488 0146 6F4B     		ldr	r3, .L23+40
 489 0148 1B88     		ldrh	r3, [r3]	@ movhi
 490 014a 7B81     		strh	r3, [r7, #10]	@ movhi
 109:Core/Src/oled.c ****         if(Temp<0)
 491              		.loc 1 109 11
 492 014c B7F90A30 		ldrsh	r3, [r7, #10]
 493 0150 002B     		cmp	r3, #0
 494 0152 06DA     		bge	.L11
 110:Core/Src/oled.c ****         {
 111:Core/Src/oled.c ****             Temp = -Temp;
 495              		.loc 1 111 18
 496 0154 7B89     		ldrh	r3, [r7, #10]
 497 0156 5B42     		rsbs	r3, r3, #0
 498 0158 9BB2     		uxth	r3, r3
 499 015a 7B81     		strh	r3, [r7, #10]	@ movhi
 112:Core/Src/oled.c ****             n0 = '-';
 500              		.loc 1 112 16
 501 015c 2D23     		movs	r3, #45
 502 015e FB81     		strh	r3, [r7, #14]	@ movhi
 503 0160 01E0     		b	.L12
ARM GAS  C:\Users\jisu8\AppData\Local\Temp\ccxQ4oye.s 			page 12


 504              	.L11:
 113:Core/Src/oled.c ****         }
 114:Core/Src/oled.c ****         else
 115:Core/Src/oled.c ****         {
 116:Core/Src/oled.c ****             n0 = ' ';
 505              		.loc 1 116 16
 506 0162 2023     		movs	r3, #32
 507 0164 FB81     		strh	r3, [r7, #14]	@ movhi
 508              	.L12:
 117:Core/Src/oled.c ****         }
 118:Core/Src/oled.c ****         n1 = (Temp%10);
 509              		.loc 1 118 12
 510 0166 B7F90A20 		ldrsh	r2, [r7, #10]
 511 016a 674B     		ldr	r3, .L23+44
 512 016c 83FB0213 		smull	r1, r3, r3, r2
 513 0170 9910     		asrs	r1, r3, #2
 514 0172 D317     		asrs	r3, r2, #31
 515 0174 C91A     		subs	r1, r1, r3
 516 0176 0B46     		mov	r3, r1
 517 0178 9B00     		lsls	r3, r3, #2
 518 017a 0B44     		add	r3, r3, r1
 519 017c 5B00     		lsls	r3, r3, #1
 520 017e D31A     		subs	r3, r2, r3
 521 0180 1BB2     		sxth	r3, r3
 522 0182 7B72     		strb	r3, [r7, #9]
 119:Core/Src/oled.c ****         n10 = ((Temp%100)/10);
 523              		.loc 1 119 13
 524 0184 B7F90A30 		ldrsh	r3, [r7, #10]
 525 0188 584A     		ldr	r2, .L23+16
 526 018a 82FB0312 		smull	r1, r2, r2, r3
 527 018e 5111     		asrs	r1, r2, #5
 528 0190 DA17     		asrs	r2, r3, #31
 529 0192 8A1A     		subs	r2, r1, r2
 530 0194 6421     		movs	r1, #100
 531 0196 01FB02F2 		mul	r2, r1, r2
 532 019a 9B1A     		subs	r3, r3, r2
 533 019c 1BB2     		sxth	r3, r3
 534 019e 5A4A     		ldr	r2, .L23+44
 535 01a0 82FB0312 		smull	r1, r2, r2, r3
 536 01a4 9210     		asrs	r2, r2, #2
 537 01a6 DB17     		asrs	r3, r3, #31
 538 01a8 D31A     		subs	r3, r2, r3
 539 01aa 1BB2     		sxth	r3, r3
 540 01ac 3B72     		strb	r3, [r7, #8]
 120:Core/Src/oled.c ****         n100 = ((Temp%1000)/100);
 541              		.loc 1 120 14
 542 01ae B7F90A30 		ldrsh	r3, [r7, #10]
 543 01b2 564A     		ldr	r2, .L23+48
 544 01b4 82FB0312 		smull	r1, r2, r2, r3
 545 01b8 9111     		asrs	r1, r2, #6
 546 01ba DA17     		asrs	r2, r3, #31
 547 01bc 8A1A     		subs	r2, r1, r2
 548 01be 4FF47A71 		mov	r1, #1000
 549 01c2 01FB02F2 		mul	r2, r1, r2
 550 01c6 9B1A     		subs	r3, r3, r2
 551 01c8 1BB2     		sxth	r3, r3
 552 01ca 484A     		ldr	r2, .L23+16
ARM GAS  C:\Users\jisu8\AppData\Local\Temp\ccxQ4oye.s 			page 13


 553 01cc 82FB0312 		smull	r1, r2, r2, r3
 554 01d0 5211     		asrs	r2, r2, #5
 555 01d2 DB17     		asrs	r3, r3, #31
 556 01d4 D31A     		subs	r3, r2, r3
 557 01d6 1BB2     		sxth	r3, r3
 558 01d8 FB70     		strb	r3, [r7, #3]
 121:Core/Src/oled.c ****         Tx_data[length+2] = n0;
 559              		.loc 1 121 23
 560 01da BB89     		ldrh	r3, [r7, #12]
 561 01dc 0233     		adds	r3, r3, #2
 562              		.loc 1 121 27
 563 01de FA89     		ldrh	r2, [r7, #14]	@ movhi
 564 01e0 D1B2     		uxtb	r1, r2
 565 01e2 404A     		ldr	r2, .L23+8
 566 01e4 D154     		strb	r1, [r2, r3]
 122:Core/Src/oled.c ****         if(n100 == 0)
 567              		.loc 1 122 11
 568 01e6 FB78     		ldrb	r3, [r7, #3]	@ zero_extendqisi2
 569 01e8 002B     		cmp	r3, #0
 570 01ea 13D1     		bne	.L13
 123:Core/Src/oled.c ****         {
 124:Core/Src/oled.c ****             Tx_data[length+3] = ' ';
 571              		.loc 1 124 27
 572 01ec BB89     		ldrh	r3, [r7, #12]
 573 01ee 0333     		adds	r3, r3, #3
 574              		.loc 1 124 31
 575 01f0 3C4A     		ldr	r2, .L23+8
 576 01f2 2021     		movs	r1, #32
 577 01f4 D154     		strb	r1, [r2, r3]
 125:Core/Src/oled.c ****             Tx_data[length+4] = n10 + 16 + 32;
 578              		.loc 1 125 27
 579 01f6 BB89     		ldrh	r3, [r7, #12]
 580 01f8 0433     		adds	r3, r3, #4
 581              		.loc 1 125 42
 582 01fa 3A7A     		ldrb	r2, [r7, #8]
 583 01fc 3032     		adds	r2, r2, #48
 584 01fe D1B2     		uxtb	r1, r2
 585              		.loc 1 125 31
 586 0200 384A     		ldr	r2, .L23+8
 587 0202 D154     		strb	r1, [r2, r3]
 126:Core/Src/oled.c ****             Tx_data[length+5] = n1 + 16 + 32;            
 588              		.loc 1 126 27
 589 0204 BB89     		ldrh	r3, [r7, #12]
 590 0206 0533     		adds	r3, r3, #5
 591              		.loc 1 126 41
 592 0208 7A7A     		ldrb	r2, [r7, #9]
 593 020a 3032     		adds	r2, r2, #48
 594 020c D1B2     		uxtb	r1, r2
 595              		.loc 1 126 31
 596 020e 354A     		ldr	r2, .L23+8
 597 0210 D154     		strb	r1, [r2, r3]
 598 0212 14E0     		b	.L14
 599              	.L13:
 127:Core/Src/oled.c ****         }
 128:Core/Src/oled.c ****         else
 129:Core/Src/oled.c ****         {
 130:Core/Src/oled.c ****             Tx_data[length+3] = n100 + 16 + 32;
ARM GAS  C:\Users\jisu8\AppData\Local\Temp\ccxQ4oye.s 			page 14


 600              		.loc 1 130 27
 601 0214 BB89     		ldrh	r3, [r7, #12]
 602 0216 0333     		adds	r3, r3, #3
 603              		.loc 1 130 43
 604 0218 FA78     		ldrb	r2, [r7, #3]
 605 021a 3032     		adds	r2, r2, #48
 606 021c D1B2     		uxtb	r1, r2
 607              		.loc 1 130 31
 608 021e 314A     		ldr	r2, .L23+8
 609 0220 D154     		strb	r1, [r2, r3]
 131:Core/Src/oled.c ****             Tx_data[length+4] = n10 + 16 + 32;
 610              		.loc 1 131 27
 611 0222 BB89     		ldrh	r3, [r7, #12]
 612 0224 0433     		adds	r3, r3, #4
 613              		.loc 1 131 42
 614 0226 3A7A     		ldrb	r2, [r7, #8]
 615 0228 3032     		adds	r2, r2, #48
 616 022a D1B2     		uxtb	r1, r2
 617              		.loc 1 131 31
 618 022c 2D4A     		ldr	r2, .L23+8
 619 022e D154     		strb	r1, [r2, r3]
 132:Core/Src/oled.c ****             Tx_data[length+5] = n1 + 16 + 32;
 620              		.loc 1 132 27
 621 0230 BB89     		ldrh	r3, [r7, #12]
 622 0232 0533     		adds	r3, r3, #5
 623              		.loc 1 132 41
 624 0234 7A7A     		ldrb	r2, [r7, #9]
 625 0236 3032     		adds	r2, r2, #48
 626 0238 D1B2     		uxtb	r1, r2
 627              		.loc 1 132 31
 628 023a 2A4A     		ldr	r2, .L23+8
 629 023c D154     		strb	r1, [r2, r3]
 630              	.L14:
 133:Core/Src/oled.c ****         }
 134:Core/Src/oled.c ****         sprintf(&Tx_data[length+6],"`C");
 631              		.loc 1 134 32
 632 023e BB89     		ldrh	r3, [r7, #12]
 633 0240 0633     		adds	r3, r3, #6
 634              		.loc 1 134 17
 635 0242 284A     		ldr	r2, .L23+8
 636 0244 1344     		add	r3, r3, r2
 637              		.loc 1 134 9
 638 0246 3249     		ldr	r1, .L23+52
 639 0248 1846     		mov	r0, r3
 640 024a FFF7FEFF 		bl	sprintf
 135:Core/Src/oled.c ****         length = strlen(Tx_data);
 641              		.loc 1 135 18
 642 024e 2548     		ldr	r0, .L23+8
 643 0250 FFF7FEFF 		bl	strlen
 644 0254 0346     		mov	r3, r0
 645              		.loc 1 135 16
 646 0256 BB81     		strh	r3, [r7, #12]	@ movhi
 136:Core/Src/oled.c ****         Tx_data[length] = ' ';
 647              		.loc 1 136 16
 648 0258 BB89     		ldrh	r3, [r7, #12]
 649              		.loc 1 136 25
 650 025a 224A     		ldr	r2, .L23+8
ARM GAS  C:\Users\jisu8\AppData\Local\Temp\ccxQ4oye.s 			page 15


 651 025c 2021     		movs	r1, #32
 652 025e D154     		strb	r1, [r2, r3]
 137:Core/Src/oled.c ****         length = length+2;
 653              		.loc 1 137 16
 654 0260 BB89     		ldrh	r3, [r7, #12]	@ movhi
 655 0262 0233     		adds	r3, r3, #2
 656 0264 BB81     		strh	r3, [r7, #12]	@ movhi
 138:Core/Src/oled.c ****         sprintf(&Tx_data[length],"Menu:");
 657              		.loc 1 138 25
 658 0266 BB89     		ldrh	r3, [r7, #12]
 659              		.loc 1 138 17
 660 0268 1E4A     		ldr	r2, .L23+8
 661 026a 1344     		add	r3, r3, r2
 662              		.loc 1 138 9
 663 026c 2949     		ldr	r1, .L23+56
 664 026e 1846     		mov	r0, r3
 665 0270 FFF7FEFF 		bl	sprintf
 139:Core/Src/oled.c ****         length = length + 5;
 666              		.loc 1 139 16
 667 0274 BB89     		ldrh	r3, [r7, #12]	@ movhi
 668 0276 0533     		adds	r3, r3, #5
 669 0278 BB81     		strh	r3, [r7, #12]	@ movhi
 140:Core/Src/oled.c ****         Tx_data[length] = ' ';
 670              		.loc 1 140 16
 671 027a BB89     		ldrh	r3, [r7, #12]
 672              		.loc 1 140 25
 673 027c 194A     		ldr	r2, .L23+8
 674 027e 2021     		movs	r1, #32
 675 0280 D154     		strb	r1, [r2, r3]
 141:Core/Src/oled.c **** 
 142:Core/Src/oled.c ****         n1 = switch_submode%10;
 676              		.loc 1 142 12
 677 0282 254B     		ldr	r3, .L23+60
 678 0284 1A78     		ldrb	r2, [r3]	@ zero_extendqisi2
 679 0286 1B4B     		ldr	r3, .L23+24
 680 0288 A3FB0213 		umull	r1, r3, r3, r2
 681 028c D908     		lsrs	r1, r3, #3
 682 028e 0B46     		mov	r3, r1
 683 0290 9B00     		lsls	r3, r3, #2
 684 0292 0B44     		add	r3, r3, r1
 685 0294 5B00     		lsls	r3, r3, #1
 686 0296 D31A     		subs	r3, r2, r3
 687 0298 7B72     		strb	r3, [r7, #9]
 143:Core/Src/oled.c ****         n10 = (switch_submode%100)/10;
 688              		.loc 1 143 13
 689 029a 1F4B     		ldr	r3, .L23+60
 690 029c 1B78     		ldrb	r3, [r3]	@ zero_extendqisi2
 691 029e 134A     		ldr	r2, .L23+16
 692 02a0 A2FB0312 		umull	r1, r2, r2, r3
 693 02a4 5209     		lsrs	r2, r2, #5
 694 02a6 6421     		movs	r1, #100
 695 02a8 01FB02F2 		mul	r2, r1, r2
 696 02ac 9B1A     		subs	r3, r3, r2
 697 02ae DBB2     		uxtb	r3, r3
 698 02b0 104A     		ldr	r2, .L23+24
 699 02b2 A2FB0323 		umull	r2, r3, r2, r3
 700 02b6 DB08     		lsrs	r3, r3, #3
ARM GAS  C:\Users\jisu8\AppData\Local\Temp\ccxQ4oye.s 			page 16


 701 02b8 3B72     		strb	r3, [r7, #8]
 144:Core/Src/oled.c ****         if(n10>0)
 702              		.loc 1 144 11
 703 02ba 3B7A     		ldrb	r3, [r7, #8]	@ zero_extendqisi2
 704 02bc 002B     		cmp	r3, #0
 705 02be 2DD0     		beq	.L15
 145:Core/Src/oled.c ****         {
 146:Core/Src/oled.c ****             Tx_data[length] = n10 + 16 + 32;
 706              		.loc 1 146 20
 707 02c0 BB89     		ldrh	r3, [r7, #12]
 708              		.loc 1 146 40
 709 02c2 3A7A     		ldrb	r2, [r7, #8]
 710 02c4 3032     		adds	r2, r2, #48
 711 02c6 D1B2     		uxtb	r1, r2
 712              		.loc 1 146 29
 713 02c8 064A     		ldr	r2, .L23+8
 714 02ca D154     		strb	r1, [r2, r3]
 147:Core/Src/oled.c ****             Tx_data[length+1] = n1 + 16 + 32;
 715              		.loc 1 147 27
 716 02cc BB89     		ldrh	r3, [r7, #12]
 717 02ce 0133     		adds	r3, r3, #1
 718              		.loc 1 147 41
 719 02d0 7A7A     		ldrb	r2, [r7, #9]
 720 02d2 3032     		adds	r2, r2, #48
 721 02d4 D1B2     		uxtb	r1, r2
 722              		.loc 1 147 31
 723 02d6 034A     		ldr	r2, .L23+8
 724 02d8 D154     		strb	r1, [r2, r3]
 725 02da 28E0     		b	.L16
 726              	.L24:
 727              		.align	2
 728              	.L23:
 729 02dc 00000000 		.word	switch_mode
 730 02e0 1C000000 		.word	.LC1
 731 02e4 00000000 		.word	Tx_data
 732 02e8 00000000 		.word	Target_Run_Time
 733 02ec 1F85EB51 		.word	1374389535
 734 02f0 89888888 		.word	-2004318071
 735 02f4 CDCCCCCC 		.word	-858993459
 736 02f8 F1197605 		.word	91625969
 737 02fc 73B2E745 		.word	1172812403
 738 0300 28000000 		.word	.LC2
 739 0304 00000000 		.word	Temp_Adc_TP
 740 0308 67666666 		.word	1717986919
 741 030c D34D6210 		.word	274877907
 742 0310 34000000 		.word	.LC3
 743 0314 38000000 		.word	.LC4
 744 0318 00000000 		.word	switch_submode
 745              	.L15:
 148:Core/Src/oled.c ****         }
 149:Core/Src/oled.c ****         else
 150:Core/Src/oled.c ****         {
 151:Core/Src/oled.c ****             length = length + 1;
 746              		.loc 1 151 20
 747 031c BB89     		ldrh	r3, [r7, #12]	@ movhi
 748 031e 0133     		adds	r3, r3, #1
 749 0320 BB81     		strh	r3, [r7, #12]	@ movhi
ARM GAS  C:\Users\jisu8\AppData\Local\Temp\ccxQ4oye.s 			page 17


 152:Core/Src/oled.c ****             Tx_data[length] = n1 + 16 + 32;
 750              		.loc 1 152 20
 751 0322 BB89     		ldrh	r3, [r7, #12]
 752              		.loc 1 152 39
 753 0324 7A7A     		ldrb	r2, [r7, #9]
 754 0326 3032     		adds	r2, r2, #48
 755 0328 D1B2     		uxtb	r1, r2
 756              		.loc 1 152 29
 757 032a 984A     		ldr	r2, .L25
 758 032c D154     		strb	r1, [r2, r3]
 759              	.L16:
 153:Core/Src/oled.c ****         }
 154:Core/Src/oled.c ****         length = length + 2;
 760              		.loc 1 154 16
 761 032e BB89     		ldrh	r3, [r7, #12]	@ movhi
 762 0330 0233     		adds	r3, r3, #2
 763 0332 BB81     		strh	r3, [r7, #12]	@ movhi
 155:Core/Src/oled.c ****         Tx_data[length] = ' ';
 764              		.loc 1 155 16
 765 0334 BB89     		ldrh	r3, [r7, #12]
 766              		.loc 1 155 25
 767 0336 954A     		ldr	r2, .L25
 768 0338 2021     		movs	r1, #32
 769 033a D154     		strb	r1, [r2, r3]
 156:Core/Src/oled.c ****         length = length + 1;
 770              		.loc 1 156 16
 771 033c BB89     		ldrh	r3, [r7, #12]	@ movhi
 772 033e 0133     		adds	r3, r3, #1
 773 0340 BB81     		strh	r3, [r7, #12]	@ movhi
 157:Core/Src/oled.c ****         sprintf(&Tx_data[length],"CO2:");
 774              		.loc 1 157 25
 775 0342 BB89     		ldrh	r3, [r7, #12]
 776              		.loc 1 157 17
 777 0344 914A     		ldr	r2, .L25
 778 0346 1344     		add	r3, r3, r2
 779              		.loc 1 157 9
 780 0348 9149     		ldr	r1, .L25+4
 781 034a 1846     		mov	r0, r3
 782 034c FFF7FEFF 		bl	sprintf
 158:Core/Src/oled.c ****         length = strlen(Tx_data);
 783              		.loc 1 158 18
 784 0350 8E48     		ldr	r0, .L25
 785 0352 FFF7FEFF 		bl	strlen
 786 0356 0346     		mov	r3, r0
 787              		.loc 1 158 16
 788 0358 BB81     		strh	r3, [r7, #12]	@ movhi
 159:Core/Src/oled.c ****         Tx_data[length] = ' ';
 789              		.loc 1 159 16
 790 035a BB89     		ldrh	r3, [r7, #12]
 791              		.loc 1 159 25
 792 035c 8B4A     		ldr	r2, .L25
 793 035e 2021     		movs	r1, #32
 794 0360 D154     		strb	r1, [r2, r3]
 160:Core/Src/oled.c ****         n1 = (CO2_Data16%10);
 795              		.loc 1 160 12
 796 0362 8C4B     		ldr	r3, .L25+8
 797 0364 1A88     		ldrh	r2, [r3]
ARM GAS  C:\Users\jisu8\AppData\Local\Temp\ccxQ4oye.s 			page 18


 798 0366 8C4B     		ldr	r3, .L25+12
 799 0368 A3FB0213 		umull	r1, r3, r3, r2
 800 036c D908     		lsrs	r1, r3, #3
 801 036e 0B46     		mov	r3, r1
 802 0370 9B00     		lsls	r3, r3, #2
 803 0372 0B44     		add	r3, r3, r1
 804 0374 5B00     		lsls	r3, r3, #1
 805 0376 D31A     		subs	r3, r2, r3
 806 0378 9BB2     		uxth	r3, r3
 807 037a 7B72     		strb	r3, [r7, #9]
 161:Core/Src/oled.c ****         n10 = ((CO2_Data16%100)/10);
 808              		.loc 1 161 13
 809 037c 854B     		ldr	r3, .L25+8
 810 037e 1B88     		ldrh	r3, [r3]
 811 0380 864A     		ldr	r2, .L25+16
 812 0382 A2FB0312 		umull	r1, r2, r2, r3
 813 0386 5209     		lsrs	r2, r2, #5
 814 0388 6421     		movs	r1, #100
 815 038a 01FB02F2 		mul	r2, r1, r2
 816 038e 9B1A     		subs	r3, r3, r2
 817 0390 9BB2     		uxth	r3, r3
 818 0392 814A     		ldr	r2, .L25+12
 819 0394 A2FB0323 		umull	r2, r3, r2, r3
 820 0398 DB08     		lsrs	r3, r3, #3
 821 039a 9BB2     		uxth	r3, r3
 822 039c 3B72     		strb	r3, [r7, #8]
 162:Core/Src/oled.c ****         n100 = ((CO2_Data16%1000)/100);
 823              		.loc 1 162 14
 824 039e 7D4B     		ldr	r3, .L25+8
 825 03a0 1B88     		ldrh	r3, [r3]
 826 03a2 7F4A     		ldr	r2, .L25+20
 827 03a4 A2FB0312 		umull	r1, r2, r2, r3
 828 03a8 9209     		lsrs	r2, r2, #6
 829 03aa 4FF47A71 		mov	r1, #1000
 830 03ae 01FB02F2 		mul	r2, r1, r2
 831 03b2 9B1A     		subs	r3, r3, r2
 832 03b4 9BB2     		uxth	r3, r3
 833 03b6 794A     		ldr	r2, .L25+16
 834 03b8 A2FB0323 		umull	r2, r3, r2, r3
 835 03bc 5B09     		lsrs	r3, r3, #5
 836 03be 9BB2     		uxth	r3, r3
 837 03c0 FB70     		strb	r3, [r7, #3]
 163:Core/Src/oled.c ****         n1000 = ((CO2_Data16%10000)/1000);
 838              		.loc 1 163 15
 839 03c2 744B     		ldr	r3, .L25+8
 840 03c4 1B88     		ldrh	r3, [r3]
 841 03c6 774A     		ldr	r2, .L25+24
 842 03c8 A2FB0312 		umull	r1, r2, r2, r3
 843 03cc 520B     		lsrs	r2, r2, #13
 844 03ce 42F21071 		movw	r1, #10000
 845 03d2 01FB02F2 		mul	r2, r1, r2
 846 03d6 9B1A     		subs	r3, r3, r2
 847 03d8 9BB2     		uxth	r3, r3
 848 03da 714A     		ldr	r2, .L25+20
 849 03dc A2FB0323 		umull	r2, r3, r2, r3
 850 03e0 9B09     		lsrs	r3, r3, #6
 851 03e2 9BB2     		uxth	r3, r3
ARM GAS  C:\Users\jisu8\AppData\Local\Temp\ccxQ4oye.s 			page 19


 852 03e4 BB70     		strb	r3, [r7, #2]
 164:Core/Src/oled.c ****         if(n1000>0)
 853              		.loc 1 164 11
 854 03e6 BB78     		ldrb	r3, [r7, #2]	@ zero_extendqisi2
 855 03e8 002B     		cmp	r3, #0
 856 03ea 1BD0     		beq	.L17
 165:Core/Src/oled.c ****         {
 166:Core/Src/oled.c ****             Tx_data[length+0] = n1000 + 16 + 32;
 857              		.loc 1 166 27
 858 03ec BB89     		ldrh	r3, [r7, #12]
 859              		.loc 1 166 44
 860 03ee BA78     		ldrb	r2, [r7, #2]
 861 03f0 3032     		adds	r2, r2, #48
 862 03f2 D1B2     		uxtb	r1, r2
 863              		.loc 1 166 31
 864 03f4 654A     		ldr	r2, .L25
 865 03f6 D154     		strb	r1, [r2, r3]
 167:Core/Src/oled.c ****             Tx_data[length+1] = n100 + 16 + 32;
 866              		.loc 1 167 27
 867 03f8 BB89     		ldrh	r3, [r7, #12]
 868 03fa 0133     		adds	r3, r3, #1
 869              		.loc 1 167 43
 870 03fc FA78     		ldrb	r2, [r7, #3]
 871 03fe 3032     		adds	r2, r2, #48
 872 0400 D1B2     		uxtb	r1, r2
 873              		.loc 1 167 31
 874 0402 624A     		ldr	r2, .L25
 875 0404 D154     		strb	r1, [r2, r3]
 168:Core/Src/oled.c ****             Tx_data[length+2] = n10 + 16 + 32;
 876              		.loc 1 168 27
 877 0406 BB89     		ldrh	r3, [r7, #12]
 878 0408 0233     		adds	r3, r3, #2
 879              		.loc 1 168 42
 880 040a 3A7A     		ldrb	r2, [r7, #8]
 881 040c 3032     		adds	r2, r2, #48
 882 040e D1B2     		uxtb	r1, r2
 883              		.loc 1 168 31
 884 0410 5E4A     		ldr	r2, .L25
 885 0412 D154     		strb	r1, [r2, r3]
 169:Core/Src/oled.c ****             Tx_data[length+3] = n1 + 16 + 32;
 886              		.loc 1 169 27
 887 0414 BB89     		ldrh	r3, [r7, #12]
 888 0416 0333     		adds	r3, r3, #3
 889              		.loc 1 169 41
 890 0418 7A7A     		ldrb	r2, [r7, #9]
 891 041a 3032     		adds	r2, r2, #48
 892 041c D1B2     		uxtb	r1, r2
 893              		.loc 1 169 31
 894 041e 5B4A     		ldr	r2, .L25
 895 0420 D154     		strb	r1, [r2, r3]
 896 0422 14E0     		b	.L18
 897              	.L17:
 170:Core/Src/oled.c ****         }
 171:Core/Src/oled.c ****         else
 172:Core/Src/oled.c ****         {
 173:Core/Src/oled.c ****             Tx_data[length+1] = n100 + 16 + 32;
 898              		.loc 1 173 27
ARM GAS  C:\Users\jisu8\AppData\Local\Temp\ccxQ4oye.s 			page 20


 899 0424 BB89     		ldrh	r3, [r7, #12]
 900 0426 0133     		adds	r3, r3, #1
 901              		.loc 1 173 43
 902 0428 FA78     		ldrb	r2, [r7, #3]
 903 042a 3032     		adds	r2, r2, #48
 904 042c D1B2     		uxtb	r1, r2
 905              		.loc 1 173 31
 906 042e 574A     		ldr	r2, .L25
 907 0430 D154     		strb	r1, [r2, r3]
 174:Core/Src/oled.c ****             Tx_data[length+2] = n10 + 16 + 32;
 908              		.loc 1 174 27
 909 0432 BB89     		ldrh	r3, [r7, #12]
 910 0434 0233     		adds	r3, r3, #2
 911              		.loc 1 174 42
 912 0436 3A7A     		ldrb	r2, [r7, #8]
 913 0438 3032     		adds	r2, r2, #48
 914 043a D1B2     		uxtb	r1, r2
 915              		.loc 1 174 31
 916 043c 534A     		ldr	r2, .L25
 917 043e D154     		strb	r1, [r2, r3]
 175:Core/Src/oled.c ****             Tx_data[length+3] = n1 + 16 + 32;
 918              		.loc 1 175 27
 919 0440 BB89     		ldrh	r3, [r7, #12]
 920 0442 0333     		adds	r3, r3, #3
 921              		.loc 1 175 41
 922 0444 7A7A     		ldrb	r2, [r7, #9]
 923 0446 3032     		adds	r2, r2, #48
 924 0448 D1B2     		uxtb	r1, r2
 925              		.loc 1 175 31
 926 044a 504A     		ldr	r2, .L25
 927 044c D154     		strb	r1, [r2, r3]
 928              	.L18:
 176:Core/Src/oled.c ****         }
 177:Core/Src/oled.c **** 
 178:Core/Src/oled.c **** 
 179:Core/Src/oled.c ****         Print_TxBuffer();
 929              		.loc 1 179 9
 930 044e FFF7FEFF 		bl	Print_TxBuffer
 931              	.LBE2:
 932 0452 94E0     		b	.L19
 933              	.L10:
 180:Core/Src/oled.c ****     }
 181:Core/Src/oled.c ****     else if(switch_mode == SWITCH_MODE_MENUSELECT)
 934              		.loc 1 181 25
 935 0454 544B     		ldr	r3, .L25+28
 936 0456 1B78     		ldrb	r3, [r3]	@ zero_extendqisi2
 937              		.loc 1 181 12
 938 0458 012B     		cmp	r3, #1
 939 045a 36D1     		bne	.L20
 940              	.LBB3:
 182:Core/Src/oled.c ****     {
 183:Core/Src/oled.c ****         Clear_TxBuffer();
 941              		.loc 1 183 9
 942 045c FFF7FEFF 		bl	Clear_TxBuffer
 184:Core/Src/oled.c ****         sprintf(Tx_data,"Select Menu : ");
 943              		.loc 1 184 9
 944 0460 5249     		ldr	r1, .L25+32
ARM GAS  C:\Users\jisu8\AppData\Local\Temp\ccxQ4oye.s 			page 21


 945 0462 4A48     		ldr	r0, .L25
 946 0464 FFF7FEFF 		bl	sprintf
 185:Core/Src/oled.c ****         length = strlen(Tx_data);
 947              		.loc 1 185 18
 948 0468 4848     		ldr	r0, .L25
 949 046a FFF7FEFF 		bl	strlen
 950 046e 0346     		mov	r3, r0
 951              		.loc 1 185 16
 952 0470 BB81     		strh	r3, [r7, #12]	@ movhi
 186:Core/Src/oled.c ****         
 187:Core/Src/oled.c ****         n1 = switch_submode % 10;
 953              		.loc 1 187 12
 954 0472 4F4B     		ldr	r3, .L25+36
 955 0474 1A78     		ldrb	r2, [r3]	@ zero_extendqisi2
 956 0476 484B     		ldr	r3, .L25+12
 957 0478 A3FB0213 		umull	r1, r3, r3, r2
 958 047c D908     		lsrs	r1, r3, #3
 959 047e 0B46     		mov	r3, r1
 960 0480 9B00     		lsls	r3, r3, #2
 961 0482 0B44     		add	r3, r3, r1
 962 0484 5B00     		lsls	r3, r3, #1
 963 0486 D31A     		subs	r3, r2, r3
 964 0488 7B72     		strb	r3, [r7, #9]
 188:Core/Src/oled.c ****         n10 = (switch_submode % 100) / 10;
 965              		.loc 1 188 13
 966 048a 494B     		ldr	r3, .L25+36
 967 048c 1B78     		ldrb	r3, [r3]	@ zero_extendqisi2
 968 048e 434A     		ldr	r2, .L25+16
 969 0490 A2FB0312 		umull	r1, r2, r2, r3
 970 0494 5209     		lsrs	r2, r2, #5
 971 0496 6421     		movs	r1, #100
 972 0498 01FB02F2 		mul	r2, r1, r2
 973 049c 9B1A     		subs	r3, r3, r2
 974 049e DBB2     		uxtb	r3, r3
 975 04a0 3D4A     		ldr	r2, .L25+12
 976 04a2 A2FB0323 		umull	r2, r3, r2, r3
 977 04a6 DB08     		lsrs	r3, r3, #3
 978 04a8 3B72     		strb	r3, [r7, #8]
 189:Core/Src/oled.c ****         Tx_data[length] = n10 + 16 + 32;
 979              		.loc 1 189 16
 980 04aa BB89     		ldrh	r3, [r7, #12]
 981              		.loc 1 189 36
 982 04ac 3A7A     		ldrb	r2, [r7, #8]
 983 04ae 3032     		adds	r2, r2, #48
 984 04b0 D1B2     		uxtb	r1, r2
 985              		.loc 1 189 25
 986 04b2 364A     		ldr	r2, .L25
 987 04b4 D154     		strb	r1, [r2, r3]
 190:Core/Src/oled.c ****         Tx_data[length+1] = n1 + 16 + 32;
 988              		.loc 1 190 23
 989 04b6 BB89     		ldrh	r3, [r7, #12]
 990 04b8 0133     		adds	r3, r3, #1
 991              		.loc 1 190 37
 992 04ba 7A7A     		ldrb	r2, [r7, #9]
 993 04bc 3032     		adds	r2, r2, #48
 994 04be D1B2     		uxtb	r1, r2
 995              		.loc 1 190 27
ARM GAS  C:\Users\jisu8\AppData\Local\Temp\ccxQ4oye.s 			page 22


 996 04c0 324A     		ldr	r2, .L25
 997 04c2 D154     		strb	r1, [r2, r3]
 191:Core/Src/oled.c ****         Print_TxBuffer();
 998              		.loc 1 191 9
 999 04c4 FFF7FEFF 		bl	Print_TxBuffer
 1000              	.LBE3:
 1001 04c8 59E0     		b	.L19
 1002              	.L20:
 1003              	.LBB4:
 192:Core/Src/oled.c ****     }
 193:Core/Src/oled.c ****     else
 194:Core/Src/oled.c ****     {
 195:Core/Src/oled.c ****         Clear_TxBuffer();
 1004              		.loc 1 195 9
 1005 04ca FFF7FEFF 		bl	Clear_TxBuffer
 196:Core/Src/oled.c ****         sprintf(Tx_data,"   < IDLE Mode >  ");
 1006              		.loc 1 196 9
 1007 04ce 3949     		ldr	r1, .L25+40
 1008 04d0 2E48     		ldr	r0, .L25
 1009 04d2 FFF7FEFF 		bl	sprintf
 197:Core/Src/oled.c ****         length = strlen(Tx_data);    
 1010              		.loc 1 197 18
 1011 04d6 2D48     		ldr	r0, .L25
 1012 04d8 FFF7FEFF 		bl	strlen
 1013 04dc 0346     		mov	r3, r0
 1014              		.loc 1 197 16
 1015 04de BB81     		strh	r3, [r7, #12]	@ movhi
 198:Core/Src/oled.c ****         Tx_data[length] = ' ';  
 1016              		.loc 1 198 16
 1017 04e0 BB89     		ldrh	r3, [r7, #12]
 1018              		.loc 1 198 25
 1019 04e2 2A4A     		ldr	r2, .L25
 1020 04e4 2021     		movs	r1, #32
 1021 04e6 D154     		strb	r1, [r2, r3]
 199:Core/Src/oled.c ****         length = length +5;
 1022              		.loc 1 199 16
 1023 04e8 BB89     		ldrh	r3, [r7, #12]	@ movhi
 1024 04ea 0533     		adds	r3, r3, #5
 1025 04ec BB81     		strh	r3, [r7, #12]	@ movhi
 200:Core/Src/oled.c ****         sprintf(&Tx_data[length],"Menu :");
 1026              		.loc 1 200 25
 1027 04ee BB89     		ldrh	r3, [r7, #12]
 1028              		.loc 1 200 17
 1029 04f0 264A     		ldr	r2, .L25
 1030 04f2 1344     		add	r3, r3, r2
 1031              		.loc 1 200 9
 1032 04f4 3049     		ldr	r1, .L25+44
 1033 04f6 1846     		mov	r0, r3
 1034 04f8 FFF7FEFF 		bl	sprintf
 201:Core/Src/oled.c ****         length = strlen(Tx_data);    
 1035              		.loc 1 201 18
 1036 04fc 2348     		ldr	r0, .L25
 1037 04fe FFF7FEFF 		bl	strlen
 1038 0502 0346     		mov	r3, r0
 1039              		.loc 1 201 16
 1040 0504 BB81     		strh	r3, [r7, #12]	@ movhi
 202:Core/Src/oled.c ****         Tx_data[length] = ' ';  
ARM GAS  C:\Users\jisu8\AppData\Local\Temp\ccxQ4oye.s 			page 23


 1041              		.loc 1 202 16
 1042 0506 BB89     		ldrh	r3, [r7, #12]
 1043              		.loc 1 202 25
 1044 0508 204A     		ldr	r2, .L25
 1045 050a 2021     		movs	r1, #32
 1046 050c D154     		strb	r1, [r2, r3]
 203:Core/Src/oled.c ****         n1 = switch_submode%10;
 1047              		.loc 1 203 12
 1048 050e 284B     		ldr	r3, .L25+36
 1049 0510 1A78     		ldrb	r2, [r3]	@ zero_extendqisi2
 1050 0512 214B     		ldr	r3, .L25+12
 1051 0514 A3FB0213 		umull	r1, r3, r3, r2
 1052 0518 D908     		lsrs	r1, r3, #3
 1053 051a 0B46     		mov	r3, r1
 1054 051c 9B00     		lsls	r3, r3, #2
 1055 051e 0B44     		add	r3, r3, r1
 1056 0520 5B00     		lsls	r3, r3, #1
 1057 0522 D31A     		subs	r3, r2, r3
 1058 0524 7B72     		strb	r3, [r7, #9]
 204:Core/Src/oled.c ****         n10 = (switch_submode%100)/10;
 1059              		.loc 1 204 13
 1060 0526 224B     		ldr	r3, .L25+36
 1061 0528 1B78     		ldrb	r3, [r3]	@ zero_extendqisi2
 1062 052a 1C4A     		ldr	r2, .L25+16
 1063 052c A2FB0312 		umull	r1, r2, r2, r3
 1064 0530 5209     		lsrs	r2, r2, #5
 1065 0532 6421     		movs	r1, #100
 1066 0534 01FB02F2 		mul	r2, r1, r2
 1067 0538 9B1A     		subs	r3, r3, r2
 1068 053a DBB2     		uxtb	r3, r3
 1069 053c 164A     		ldr	r2, .L25+12
 1070 053e A2FB0323 		umull	r2, r3, r2, r3
 1071 0542 DB08     		lsrs	r3, r3, #3
 1072 0544 3B72     		strb	r3, [r7, #8]
 205:Core/Src/oled.c ****         if(n10>0)
 1073              		.loc 1 205 11
 1074 0546 3B7A     		ldrb	r3, [r7, #8]	@ zero_extendqisi2
 1075 0548 002B     		cmp	r3, #0
 1076 054a 0DD0     		beq	.L21
 206:Core/Src/oled.c ****         {
 207:Core/Src/oled.c ****             Tx_data[length] = n10 + 16 + 32;
 1077              		.loc 1 207 20
 1078 054c BB89     		ldrh	r3, [r7, #12]
 1079              		.loc 1 207 40
 1080 054e 3A7A     		ldrb	r2, [r7, #8]
 1081 0550 3032     		adds	r2, r2, #48
 1082 0552 D1B2     		uxtb	r1, r2
 1083              		.loc 1 207 29
 1084 0554 0D4A     		ldr	r2, .L25
 1085 0556 D154     		strb	r1, [r2, r3]
 208:Core/Src/oled.c ****             Tx_data[length+1] = n1 + 16 + 32;
 1086              		.loc 1 208 27
 1087 0558 BB89     		ldrh	r3, [r7, #12]
 1088 055a 0133     		adds	r3, r3, #1
 1089              		.loc 1 208 41
 1090 055c 7A7A     		ldrb	r2, [r7, #9]
 1091 055e 3032     		adds	r2, r2, #48
ARM GAS  C:\Users\jisu8\AppData\Local\Temp\ccxQ4oye.s 			page 24


 1092 0560 D1B2     		uxtb	r1, r2
 1093              		.loc 1 208 31
 1094 0562 0A4A     		ldr	r2, .L25
 1095 0564 D154     		strb	r1, [r2, r3]
 1096 0566 08E0     		b	.L22
 1097              	.L21:
 209:Core/Src/oled.c ****         }
 210:Core/Src/oled.c ****         else
 211:Core/Src/oled.c ****         {
 212:Core/Src/oled.c ****             length = length + 1;
 1098              		.loc 1 212 20
 1099 0568 BB89     		ldrh	r3, [r7, #12]	@ movhi
 1100 056a 0133     		adds	r3, r3, #1
 1101 056c BB81     		strh	r3, [r7, #12]	@ movhi
 213:Core/Src/oled.c ****             Tx_data[length] = n1 + 16 + 32;
 1102              		.loc 1 213 20
 1103 056e BB89     		ldrh	r3, [r7, #12]
 1104              		.loc 1 213 39
 1105 0570 7A7A     		ldrb	r2, [r7, #9]
 1106 0572 3032     		adds	r2, r2, #48
 1107 0574 D1B2     		uxtb	r1, r2
 1108              		.loc 1 213 29
 1109 0576 054A     		ldr	r2, .L25
 1110 0578 D154     		strb	r1, [r2, r3]
 1111              	.L22:
 214:Core/Src/oled.c ****         }
 215:Core/Src/oled.c ****         Print_TxBuffer();  
 1112              		.loc 1 215 9
 1113 057a FFF7FEFF 		bl	Print_TxBuffer
 1114              	.L19:
 1115              	.LBE4:
 216:Core/Src/oled.c ****     }
 217:Core/Src/oled.c ****  
 218:Core/Src/oled.c **** 
 219:Core/Src/oled.c ****     OLED_Update_Screen();
 1116              		.loc 1 219 5
 1117 057e FFF7FEFF 		bl	OLED_Update_Screen
 220:Core/Src/oled.c **** }
 1118              		.loc 1 220 1
 1119 0582 00BF     		nop
 1120 0584 1037     		adds	r7, r7, #16
 1121              	.LCFI10:
 1122              		.cfi_def_cfa_offset 8
 1123 0586 BD46     		mov	sp, r7
 1124              	.LCFI11:
 1125              		.cfi_def_cfa_register 13
 1126              		@ sp needed
 1127 0588 80BD     		pop	{r7, pc}
 1128              	.L26:
 1129 058a 00BF     		.align	2
 1130              	.L25:
 1131 058c 00000000 		.word	Tx_data
 1132 0590 40000000 		.word	.LC5
 1133 0594 00000000 		.word	CO2_Data16
 1134 0598 CDCCCCCC 		.word	-858993459
 1135 059c 1F85EB51 		.word	1374389535
 1136 05a0 D34D6210 		.word	274877907
ARM GAS  C:\Users\jisu8\AppData\Local\Temp\ccxQ4oye.s 			page 25


 1137 05a4 5917B7D1 		.word	-776530087
 1138 05a8 00000000 		.word	switch_mode
 1139 05ac 48000000 		.word	.LC6
 1140 05b0 00000000 		.word	switch_submode
 1141 05b4 58000000 		.word	.LC7
 1142 05b8 6C000000 		.word	.LC8
 1143              		.cfi_endproc
 1144              	.LFE67:
 1146              		.section	.text.Clear_TxBuffer,"ax",%progbits
 1147              		.align	1
 1148              		.syntax unified
 1149              		.thumb
 1150              		.thumb_func
 1152              	Clear_TxBuffer:
 1153              	.LFB68:
 221:Core/Src/oled.c **** 
 222:Core/Src/oled.c **** static void Clear_TxBuffer(void)
 223:Core/Src/oled.c **** {
 1154              		.loc 1 223 1
 1155              		.cfi_startproc
 1156              		@ args = 0, pretend = 0, frame = 8
 1157              		@ frame_needed = 1, uses_anonymous_args = 0
 1158              		@ link register save eliminated.
 1159 0000 80B4     		push	{r7}
 1160              	.LCFI12:
 1161              		.cfi_def_cfa_offset 4
 1162              		.cfi_offset 7, -4
 1163 0002 83B0     		sub	sp, sp, #12
 1164              	.LCFI13:
 1165              		.cfi_def_cfa_offset 16
 1166 0004 00AF     		add	r7, sp, #0
 1167              	.LCFI14:
 1168              		.cfi_def_cfa_register 7
 1169              	.LBB5:
 224:Core/Src/oled.c ****     for(int i=0;i<100;i++)
 1170              		.loc 1 224 13
 1171 0006 0023     		movs	r3, #0
 1172 0008 7B60     		str	r3, [r7, #4]
 1173              		.loc 1 224 5
 1174 000a 07E0     		b	.L28
 1175              	.L29:
 225:Core/Src/oled.c ****     {
 226:Core/Src/oled.c ****         Tx_data[i] = ' ';
 1176              		.loc 1 226 20 discriminator 3
 1177 000c 084A     		ldr	r2, .L30
 1178 000e 7B68     		ldr	r3, [r7, #4]
 1179 0010 1344     		add	r3, r3, r2
 1180 0012 2022     		movs	r2, #32
 1181 0014 1A70     		strb	r2, [r3]
 224:Core/Src/oled.c ****     for(int i=0;i<100;i++)
 1182              		.loc 1 224 24 discriminator 3
 1183 0016 7B68     		ldr	r3, [r7, #4]
 1184 0018 0133     		adds	r3, r3, #1
 1185 001a 7B60     		str	r3, [r7, #4]
 1186              	.L28:
 224:Core/Src/oled.c ****     for(int i=0;i<100;i++)
 1187              		.loc 1 224 5 discriminator 1
ARM GAS  C:\Users\jisu8\AppData\Local\Temp\ccxQ4oye.s 			page 26


 1188 001c 7B68     		ldr	r3, [r7, #4]
 1189 001e 632B     		cmp	r3, #99
 1190 0020 F4DD     		ble	.L29
 1191              	.LBE5:
 227:Core/Src/oled.c ****     }
 228:Core/Src/oled.c **** }
 1192              		.loc 1 228 1
 1193 0022 00BF     		nop
 1194 0024 00BF     		nop
 1195 0026 0C37     		adds	r7, r7, #12
 1196              	.LCFI15:
 1197              		.cfi_def_cfa_offset 4
 1198 0028 BD46     		mov	sp, r7
 1199              	.LCFI16:
 1200              		.cfi_def_cfa_register 13
 1201              		@ sp needed
 1202 002a 80BC     		pop	{r7}
 1203              	.LCFI17:
 1204              		.cfi_restore 7
 1205              		.cfi_def_cfa_offset 0
 1206 002c 7047     		bx	lr
 1207              	.L31:
 1208 002e 00BF     		.align	2
 1209              	.L30:
 1210 0030 00000000 		.word	Tx_data
 1211              		.cfi_endproc
 1212              	.LFE68:
 1214              		.section	.text.Print_TxBuffer,"ax",%progbits
 1215              		.align	1
 1216              		.syntax unified
 1217              		.thumb
 1218              		.thumb_func
 1220              	Print_TxBuffer:
 1221              	.LFB69:
 229:Core/Src/oled.c **** 
 230:Core/Src/oled.c **** static void Print_TxBuffer(void)
 231:Core/Src/oled.c **** {
 1222              		.loc 1 231 1
 1223              		.cfi_startproc
 1224              		@ args = 0, pretend = 0, frame = 8
 1225              		@ frame_needed = 1, uses_anonymous_args = 0
 1226 0000 80B5     		push	{r7, lr}
 1227              	.LCFI18:
 1228              		.cfi_def_cfa_offset 8
 1229              		.cfi_offset 7, -8
 1230              		.cfi_offset 14, -4
 1231 0002 82B0     		sub	sp, sp, #8
 1232              	.LCFI19:
 1233              		.cfi_def_cfa_offset 16
 1234 0004 00AF     		add	r7, sp, #0
 1235              	.LCFI20:
 1236              		.cfi_def_cfa_register 7
 1237              	.LBB6:
 232:Core/Src/oled.c ****     uint8 dummy;
 233:Core/Src/oled.c ****     for(uint8 idx=0;idx<69;idx++)
 1238              		.loc 1 233 15
 1239 0006 0023     		movs	r3, #0
ARM GAS  C:\Users\jisu8\AppData\Local\Temp\ccxQ4oye.s 			page 27


 1240 0008 FB71     		strb	r3, [r7, #7]
 1241              		.loc 1 233 5
 1242 000a 3EE0     		b	.L33
 1243              	.L37:
 234:Core/Src/oled.c ****     {
 235:Core/Src/oled.c ****         if(7*(idx+1)<128)
 1244              		.loc 1 235 18
 1245 000c FB79     		ldrb	r3, [r7, #7]	@ zero_extendqisi2
 1246 000e 5A1C     		adds	r2, r3, #1
 1247              		.loc 1 235 13
 1248 0010 1346     		mov	r3, r2
 1249 0012 DB00     		lsls	r3, r3, #3
 1250 0014 9B1A     		subs	r3, r3, r2
 1251              		.loc 1 235 11
 1252 0016 7F2B     		cmp	r3, #127
 1253 0018 0ADC     		bgt	.L34
 236:Core/Src/oled.c ****         {
 237:Core/Src/oled.c ****             OLED_Set_X_Y(7*idx,0); 
 1254              		.loc 1 237 13
 1255 001a FB79     		ldrb	r3, [r7, #7]	@ zero_extendqisi2
 1256 001c 9BB2     		uxth	r3, r3
 1257 001e 1A46     		mov	r2, r3	@ movhi
 1258 0020 D200     		lsls	r2, r2, #3
 1259 0022 D31A     		subs	r3, r2, r3
 1260 0024 9BB2     		uxth	r3, r3
 1261 0026 0021     		movs	r1, #0
 1262 0028 1846     		mov	r0, r3
 1263 002a FFF7FEFF 		bl	OLED_Set_X_Y
 1264 002e 1DE0     		b	.L35
 1265              	.L34:
 238:Core/Src/oled.c ****         }
 239:Core/Src/oled.c ****         else if(7*(idx+1)<256)
 1266              		.loc 1 239 23
 1267 0030 FB79     		ldrb	r3, [r7, #7]	@ zero_extendqisi2
 1268 0032 5A1C     		adds	r2, r3, #1
 1269              		.loc 1 239 18
 1270 0034 1346     		mov	r3, r2
 1271 0036 DB00     		lsls	r3, r3, #3
 1272 0038 9B1A     		subs	r3, r3, r2
 1273              		.loc 1 239 16
 1274 003a FF2B     		cmp	r3, #255
 1275 003c 0BDC     		bgt	.L36
 240:Core/Src/oled.c ****         {
 241:Core/Src/oled.c ****             OLED_Set_X_Y(7*(idx-18),10);  
 1276              		.loc 1 241 32
 1277 003e FB79     		ldrb	r3, [r7, #7]	@ zero_extendqisi2
 1278 0040 123B     		subs	r3, r3, #18
 1279              		.loc 1 241 13
 1280 0042 9BB2     		uxth	r3, r3
 1281 0044 1A46     		mov	r2, r3	@ movhi
 1282 0046 D200     		lsls	r2, r2, #3
 1283 0048 D31A     		subs	r3, r2, r3
 1284 004a 9BB2     		uxth	r3, r3
 1285 004c 0A21     		movs	r1, #10
 1286 004e 1846     		mov	r0, r3
 1287 0050 FFF7FEFF 		bl	OLED_Set_X_Y
 1288 0054 0AE0     		b	.L35
ARM GAS  C:\Users\jisu8\AppData\Local\Temp\ccxQ4oye.s 			page 28


 1289              	.L36:
 242:Core/Src/oled.c ****         }
 243:Core/Src/oled.c ****         else
 244:Core/Src/oled.c ****         {
 245:Core/Src/oled.c ****             OLED_Set_X_Y(7*(idx-36),20);                 
 1290              		.loc 1 245 32
 1291 0056 FB79     		ldrb	r3, [r7, #7]	@ zero_extendqisi2
 1292 0058 243B     		subs	r3, r3, #36
 1293              		.loc 1 245 13
 1294 005a 9BB2     		uxth	r3, r3
 1295 005c 1A46     		mov	r2, r3	@ movhi
 1296 005e D200     		lsls	r2, r2, #3
 1297 0060 D31A     		subs	r3, r2, r3
 1298 0062 9BB2     		uxth	r3, r3
 1299 0064 1421     		movs	r1, #20
 1300 0066 1846     		mov	r0, r3
 1301 0068 FFF7FEFF 		bl	OLED_Set_X_Y
 1302              	.L35:
 246:Core/Src/oled.c ****         }
 247:Core/Src/oled.c ****         dummy = OLED_Set_Char(Tx_data[idx]-32,&OLED_Font_7x10,OLED_COLOR_WHITE);
 1303              		.loc 1 247 38 discriminator 2
 1304 006c FB79     		ldrb	r3, [r7, #7]	@ zero_extendqisi2
 1305 006e 0B4A     		ldr	r2, .L38
 1306 0070 D35C     		ldrb	r3, [r2, r3]	@ zero_extendqisi2
 1307              		.loc 1 247 17 discriminator 2
 1308 0072 203B     		subs	r3, r3, #32
 1309 0074 DBB2     		uxtb	r3, r3
 1310 0076 0122     		movs	r2, #1
 1311 0078 0949     		ldr	r1, .L38+4
 1312 007a 1846     		mov	r0, r3
 1313 007c FFF7FEFF 		bl	OLED_Set_Char
 1314 0080 0346     		mov	r3, r0
 1315 0082 BB71     		strb	r3, [r7, #6]
 233:Core/Src/oled.c ****     {
 1316              		.loc 1 233 31 discriminator 2
 1317 0084 FB79     		ldrb	r3, [r7, #7]	@ zero_extendqisi2
 1318 0086 0133     		adds	r3, r3, #1
 1319 0088 FB71     		strb	r3, [r7, #7]
 1320              	.L33:
 233:Core/Src/oled.c ****     {
 1321              		.loc 1 233 5 discriminator 1
 1322 008a FB79     		ldrb	r3, [r7, #7]	@ zero_extendqisi2
 1323 008c 442B     		cmp	r3, #68
 1324 008e BDD9     		bls	.L37
 1325              	.LBE6:
 248:Core/Src/oled.c ****     }
 249:Core/Src/oled.c **** }
 1326              		.loc 1 249 1
 1327 0090 00BF     		nop
 1328 0092 00BF     		nop
 1329 0094 0837     		adds	r7, r7, #8
 1330              	.LCFI21:
 1331              		.cfi_def_cfa_offset 8
 1332 0096 BD46     		mov	sp, r7
 1333              	.LCFI22:
 1334              		.cfi_def_cfa_register 13
 1335              		@ sp needed
ARM GAS  C:\Users\jisu8\AppData\Local\Temp\ccxQ4oye.s 			page 29


 1336 0098 80BD     		pop	{r7, pc}
 1337              	.L39:
 1338 009a 00BF     		.align	2
 1339              	.L38:
 1340 009c 00000000 		.word	Tx_data
 1341 00a0 00000000 		.word	OLED_Font_7x10
 1342              		.cfi_endproc
 1343              	.LFE69:
 1345              		.section	.text.OLED_Write_Command,"ax",%progbits
 1346              		.align	1
 1347              		.syntax unified
 1348              		.thumb
 1349              		.thumb_func
 1351              	OLED_Write_Command:
 1352              	.LFB70:
 250:Core/Src/oled.c **** 
 251:Core/Src/oled.c **** static void OLED_Write_Command(uint8 command)
 252:Core/Src/oled.c **** {
 1353              		.loc 1 252 1
 1354              		.cfi_startproc
 1355              		@ args = 0, pretend = 0, frame = 16
 1356              		@ frame_needed = 1, uses_anonymous_args = 0
 1357 0000 80B5     		push	{r7, lr}
 1358              	.LCFI23:
 1359              		.cfi_def_cfa_offset 8
 1360              		.cfi_offset 7, -8
 1361              		.cfi_offset 14, -4
 1362 0002 86B0     		sub	sp, sp, #24
 1363              	.LCFI24:
 1364              		.cfi_def_cfa_offset 32
 1365 0004 02AF     		add	r7, sp, #8
 1366              	.LCFI25:
 1367              		.cfi_def_cfa 7, 24
 1368 0006 0346     		mov	r3, r0
 1369 0008 FB71     		strb	r3, [r7, #7]
 253:Core/Src/oled.c ****     uint8 data[2] = {0x00,command};
 1370              		.loc 1 253 11
 1371 000a 0023     		movs	r3, #0
 1372 000c 3B73     		strb	r3, [r7, #12]
 1373 000e FB79     		ldrb	r3, [r7, #7]
 1374 0010 7B73     		strb	r3, [r7, #13]
 254:Core/Src/oled.c ****     HAL_I2C_Master_Transmit(&OLED_HW_MODULE,OLED_ADDRESS<<1,data,sizeof(data),1000);
 1375              		.loc 1 254 5
 1376 0012 07F10C02 		add	r2, r7, #12
 1377 0016 4FF47A73 		mov	r3, #1000
 1378 001a 0093     		str	r3, [sp]
 1379 001c 0223     		movs	r3, #2
 1380 001e 7821     		movs	r1, #120
 1381 0020 0348     		ldr	r0, .L41
 1382 0022 FFF7FEFF 		bl	HAL_I2C_Master_Transmit
 255:Core/Src/oled.c **** }
 1383              		.loc 1 255 1
 1384 0026 00BF     		nop
 1385 0028 1037     		adds	r7, r7, #16
 1386              	.LCFI26:
 1387              		.cfi_def_cfa_offset 8
 1388 002a BD46     		mov	sp, r7
ARM GAS  C:\Users\jisu8\AppData\Local\Temp\ccxQ4oye.s 			page 30


 1389              	.LCFI27:
 1390              		.cfi_def_cfa_register 13
 1391              		@ sp needed
 1392 002c 80BD     		pop	{r7, pc}
 1393              	.L42:
 1394 002e 00BF     		.align	2
 1395              	.L41:
 1396 0030 00000000 		.word	hi2c1
 1397              		.cfi_endproc
 1398              	.LFE70:
 1400              		.section	.text.OLED_Fill_Screen,"ax",%progbits
 1401              		.align	1
 1402              		.syntax unified
 1403              		.thumb
 1404              		.thumb_func
 1406              	OLED_Fill_Screen:
 1407              	.LFB71:
 256:Core/Src/oled.c **** 
 257:Core/Src/oled.c **** static void OLED_Fill_Screen(OLED_COLOR_t color)
 258:Core/Src/oled.c **** {
 1408              		.loc 1 258 1
 1409              		.cfi_startproc
 1410              		@ args = 0, pretend = 0, frame = 8
 1411              		@ frame_needed = 1, uses_anonymous_args = 0
 1412 0000 80B5     		push	{r7, lr}
 1413              	.LCFI28:
 1414              		.cfi_def_cfa_offset 8
 1415              		.cfi_offset 7, -8
 1416              		.cfi_offset 14, -4
 1417 0002 82B0     		sub	sp, sp, #8
 1418              	.LCFI29:
 1419              		.cfi_def_cfa_offset 16
 1420 0004 00AF     		add	r7, sp, #0
 1421              	.LCFI30:
 1422              		.cfi_def_cfa_register 7
 1423 0006 0346     		mov	r3, r0
 1424 0008 FB71     		strb	r3, [r7, #7]
 259:Core/Src/oled.c ****     /* Set memory */
 260:Core/Src/oled.c ****     memset(OLED_Buffer, (color == OLED_COLOR_BLACK) ? 0x00 : 0xFF, sizeof(OLED_Buffer));    
 1425              		.loc 1 260 5
 1426 000a FB79     		ldrb	r3, [r7, #7]	@ zero_extendqisi2
 1427 000c 002B     		cmp	r3, #0
 1428 000e 01D1     		bne	.L44
 1429              		.loc 1 260 5 is_stmt 0 discriminator 1
 1430 0010 0023     		movs	r3, #0
 1431 0012 00E0     		b	.L45
 1432              	.L44:
 1433              		.loc 1 260 5 discriminator 2
 1434 0014 FF23     		movs	r3, #255
 1435              	.L45:
 1436              		.loc 1 260 5 discriminator 4
 1437 0016 4FF40072 		mov	r2, #512
 1438 001a 1946     		mov	r1, r3
 1439 001c 0348     		ldr	r0, .L46
 1440 001e FFF7FEFF 		bl	memset
 261:Core/Src/oled.c **** }
 1441              		.loc 1 261 1 is_stmt 1 discriminator 4
ARM GAS  C:\Users\jisu8\AppData\Local\Temp\ccxQ4oye.s 			page 31


 1442 0022 00BF     		nop
 1443 0024 0837     		adds	r7, r7, #8
 1444              	.LCFI31:
 1445              		.cfi_def_cfa_offset 8
 1446 0026 BD46     		mov	sp, r7
 1447              	.LCFI32:
 1448              		.cfi_def_cfa_register 13
 1449              		@ sp needed
 1450 0028 80BD     		pop	{r7, pc}
 1451              	.L47:
 1452 002a 00BF     		.align	2
 1453              	.L46:
 1454 002c 00000000 		.word	OLED_Buffer
 1455              		.cfi_endproc
 1456              	.LFE71:
 1458              		.section	.text.OLED_Update_Screen,"ax",%progbits
 1459              		.align	1
 1460              		.syntax unified
 1461              		.thumb
 1462              		.thumb_func
 1464              	OLED_Update_Screen:
 1465              	.LFB72:
 262:Core/Src/oled.c **** 
 263:Core/Src/oled.c **** static void OLED_Update_Screen(void)
 264:Core/Src/oled.c **** {
 1466              		.loc 1 264 1
 1467              		.cfi_startproc
 1468              		@ args = 0, pretend = 0, frame = 8
 1469              		@ frame_needed = 1, uses_anonymous_args = 0
 1470 0000 80B5     		push	{r7, lr}
 1471              	.LCFI33:
 1472              		.cfi_def_cfa_offset 8
 1473              		.cfi_offset 7, -8
 1474              		.cfi_offset 14, -4
 1475 0002 86B0     		sub	sp, sp, #24
 1476              	.LCFI34:
 1477              		.cfi_def_cfa_offset 32
 1478 0004 04AF     		add	r7, sp, #16
 1479              	.LCFI35:
 1480              		.cfi_def_cfa 7, 16
 1481              	.LBB7:
 265:Core/Src/oled.c ****     for (uint8 idx = 0; idx < 8; idx++) 
 1482              		.loc 1 265 16
 1483 0006 0023     		movs	r3, #0
 1484 0008 FB71     		strb	r3, [r7, #7]
 1485              		.loc 1 265 5
 1486 000a 1EE0     		b	.L49
 1487              	.L50:
 266:Core/Src/oled.c ****     {
 267:Core/Src/oled.c ****         OLED_Write_Command(0xB0 + idx);
 1488              		.loc 1 267 9 discriminator 3
 1489 000c FB79     		ldrb	r3, [r7, #7]
 1490 000e 503B     		subs	r3, r3, #80
 1491 0010 DBB2     		uxtb	r3, r3
 1492 0012 1846     		mov	r0, r3
 1493 0014 FFF7FEFF 		bl	OLED_Write_Command
 268:Core/Src/oled.c ****         OLED_Write_Command(0x00);
ARM GAS  C:\Users\jisu8\AppData\Local\Temp\ccxQ4oye.s 			page 32


 1494              		.loc 1 268 9 discriminator 3
 1495 0018 0020     		movs	r0, #0
 1496 001a FFF7FEFF 		bl	OLED_Write_Command
 269:Core/Src/oled.c ****         OLED_Write_Command(0x10);
 1497              		.loc 1 269 9 discriminator 3
 1498 001e 1020     		movs	r0, #16
 1499 0020 FFF7FEFF 		bl	OLED_Write_Command
 270:Core/Src/oled.c **** 
 271:Core/Src/oled.c ****         HAL_I2C_Mem_Write(&OLED_HW_MODULE,OLED_ADDRESS<<1,0x40,I2C_MEMADD_SIZE_8BIT,&OLED_Buffer[OL
 1500              		.loc 1 271 109 discriminator 3
 1501 0024 FB79     		ldrb	r3, [r7, #7]	@ zero_extendqisi2
 1502 0026 DB01     		lsls	r3, r3, #7
 1503              		.loc 1 271 85 discriminator 3
 1504 0028 0C4A     		ldr	r2, .L51
 1505 002a 1344     		add	r3, r3, r2
 1506              		.loc 1 271 9 discriminator 3
 1507 002c 4FF47A72 		mov	r2, #1000
 1508 0030 0292     		str	r2, [sp, #8]
 1509 0032 8022     		movs	r2, #128
 1510 0034 0192     		str	r2, [sp, #4]
 1511 0036 0093     		str	r3, [sp]
 1512 0038 0123     		movs	r3, #1
 1513 003a 4022     		movs	r2, #64
 1514 003c 7821     		movs	r1, #120
 1515 003e 0848     		ldr	r0, .L51+4
 1516 0040 FFF7FEFF 		bl	HAL_I2C_Mem_Write
 265:Core/Src/oled.c ****     {
 1517              		.loc 1 265 37 discriminator 3
 1518 0044 FB79     		ldrb	r3, [r7, #7]	@ zero_extendqisi2
 1519 0046 0133     		adds	r3, r3, #1
 1520 0048 FB71     		strb	r3, [r7, #7]
 1521              	.L49:
 265:Core/Src/oled.c ****     {
 1522              		.loc 1 265 5 discriminator 1
 1523 004a FB79     		ldrb	r3, [r7, #7]	@ zero_extendqisi2
 1524 004c 072B     		cmp	r3, #7
 1525 004e DDD9     		bls	.L50
 1526              	.LBE7:
 272:Core/Src/oled.c ****     }    
 273:Core/Src/oled.c **** }
 1527              		.loc 1 273 1
 1528 0050 00BF     		nop
 1529 0052 00BF     		nop
 1530 0054 0837     		adds	r7, r7, #8
 1531              	.LCFI36:
 1532              		.cfi_def_cfa_offset 8
 1533 0056 BD46     		mov	sp, r7
 1534              	.LCFI37:
 1535              		.cfi_def_cfa_register 13
 1536              		@ sp needed
 1537 0058 80BD     		pop	{r7, pc}
 1538              	.L52:
 1539 005a 00BF     		.align	2
 1540              	.L51:
 1541 005c 00000000 		.word	OLED_Buffer
 1542 0060 00000000 		.word	hi2c1
 1543              		.cfi_endproc
ARM GAS  C:\Users\jisu8\AppData\Local\Temp\ccxQ4oye.s 			page 33


 1544              	.LFE72:
 1546              		.section	.text.OLED_Set_X_Y,"ax",%progbits
 1547              		.align	1
 1548              		.syntax unified
 1549              		.thumb
 1550              		.thumb_func
 1552              	OLED_Set_X_Y:
 1553              	.LFB73:
 274:Core/Src/oled.c **** 
 275:Core/Src/oled.c **** static void OLED_Set_X_Y(uint16 x, uint16 y) 
 276:Core/Src/oled.c **** {
 1554              		.loc 1 276 1
 1555              		.cfi_startproc
 1556              		@ args = 0, pretend = 0, frame = 8
 1557              		@ frame_needed = 1, uses_anonymous_args = 0
 1558              		@ link register save eliminated.
 1559 0000 80B4     		push	{r7}
 1560              	.LCFI38:
 1561              		.cfi_def_cfa_offset 4
 1562              		.cfi_offset 7, -4
 1563 0002 83B0     		sub	sp, sp, #12
 1564              	.LCFI39:
 1565              		.cfi_def_cfa_offset 16
 1566 0004 00AF     		add	r7, sp, #0
 1567              	.LCFI40:
 1568              		.cfi_def_cfa_register 7
 1569 0006 0346     		mov	r3, r0
 1570 0008 0A46     		mov	r2, r1
 1571 000a FB80     		strh	r3, [r7, #6]	@ movhi
 1572 000c 1346     		mov	r3, r2	@ movhi
 1573 000e BB80     		strh	r3, [r7, #4]	@ movhi
 277:Core/Src/oled.c ****     /* Set write pointers */
 278:Core/Src/oled.c ****     OLED.X_point = x;
 1574              		.loc 1 278 18
 1575 0010 054A     		ldr	r2, .L54
 1576 0012 FB88     		ldrh	r3, [r7, #6]	@ movhi
 1577 0014 1380     		strh	r3, [r2]	@ movhi
 279:Core/Src/oled.c ****     OLED.Y_point = y;
 1578              		.loc 1 279 18
 1579 0016 044A     		ldr	r2, .L54
 1580 0018 BB88     		ldrh	r3, [r7, #4]	@ movhi
 1581 001a 5380     		strh	r3, [r2, #2]	@ movhi
 280:Core/Src/oled.c **** }
 1582              		.loc 1 280 1
 1583 001c 00BF     		nop
 1584 001e 0C37     		adds	r7, r7, #12
 1585              	.LCFI41:
 1586              		.cfi_def_cfa_offset 4
 1587 0020 BD46     		mov	sp, r7
 1588              	.LCFI42:
 1589              		.cfi_def_cfa_register 13
 1590              		@ sp needed
 1591 0022 80BC     		pop	{r7}
 1592              	.LCFI43:
 1593              		.cfi_restore 7
 1594              		.cfi_def_cfa_offset 0
 1595 0024 7047     		bx	lr
ARM GAS  C:\Users\jisu8\AppData\Local\Temp\ccxQ4oye.s 			page 34


 1596              	.L55:
 1597 0026 00BF     		.align	2
 1598              	.L54:
 1599 0028 00000000 		.word	OLED
 1600              		.cfi_endproc
 1601              	.LFE73:
 1603              		.section	.text.OLED_Set_Char,"ax",%progbits
 1604              		.align	1
 1605              		.syntax unified
 1606              		.thumb
 1607              		.thumb_func
 1609              	OLED_Set_Char:
 1610              	.LFB74:
 281:Core/Src/oled.c **** 
 282:Core/Src/oled.c **** static char OLED_Set_Char(char ch, OLED_Font_t* Font, OLED_COLOR_t color) 
 283:Core/Src/oled.c **** {
 1611              		.loc 1 283 1
 1612              		.cfi_startproc
 1613              		@ args = 0, pretend = 0, frame = 24
 1614              		@ frame_needed = 1, uses_anonymous_args = 0
 1615 0000 80B5     		push	{r7, lr}
 1616              	.LCFI44:
 1617              		.cfi_def_cfa_offset 8
 1618              		.cfi_offset 7, -8
 1619              		.cfi_offset 14, -4
 1620 0002 86B0     		sub	sp, sp, #24
 1621              	.LCFI45:
 1622              		.cfi_def_cfa_offset 32
 1623 0004 00AF     		add	r7, sp, #0
 1624              	.LCFI46:
 1625              		.cfi_def_cfa_register 7
 1626 0006 0346     		mov	r3, r0
 1627 0008 3960     		str	r1, [r7]
 1628 000a FB71     		strb	r3, [r7, #7]
 1629 000c 1346     		mov	r3, r2
 1630 000e BB71     		strb	r3, [r7, #6]
 284:Core/Src/oled.c ****     /* Check available space in LCD */
 285:Core/Src/oled.c ****     if (OLED_WIDTH <= (OLED.X_point + Font->FontWidth) || OLED_HEIGHT <= (OLED.Y_point + Font->Font
 1631              		.loc 1 285 28
 1632 0010 394B     		ldr	r3, .L66
 1633 0012 1B88     		ldrh	r3, [r3]
 1634 0014 1A46     		mov	r2, r3
 1635              		.loc 1 285 43
 1636 0016 3B68     		ldr	r3, [r7]
 1637 0018 1B78     		ldrb	r3, [r3]	@ zero_extendqisi2
 1638              		.loc 1 285 37
 1639 001a 1344     		add	r3, r3, r2
 1640              		.loc 1 285 8
 1641 001c 7F2B     		cmp	r3, #127
 1642 001e 07DC     		bgt	.L57
 1643              		.loc 1 285 79 discriminator 1
 1644 0020 354B     		ldr	r3, .L66
 1645 0022 5B88     		ldrh	r3, [r3, #2]
 1646 0024 1A46     		mov	r2, r3
 1647              		.loc 1 285 94 discriminator 1
 1648 0026 3B68     		ldr	r3, [r7]
 1649 0028 5B78     		ldrb	r3, [r3, #1]	@ zero_extendqisi2
ARM GAS  C:\Users\jisu8\AppData\Local\Temp\ccxQ4oye.s 			page 35


 1650              		.loc 1 285 88 discriminator 1
 1651 002a 1344     		add	r3, r3, r2
 1652              		.loc 1 285 56 discriminator 1
 1653 002c 1F2B     		cmp	r3, #31
 1654 002e 01DD     		ble	.L58
 1655              	.L57:
 286:Core/Src/oled.c ****     {/* Error */ return 0;}
 1656              		.loc 1 286 25
 1657 0030 0023     		movs	r3, #0
 1658 0032 5DE0     		b	.L59
 1659              	.L58:
 1660              	.LBB8:
 287:Core/Src/oled.c **** 
 288:Core/Src/oled.c ****     /* Go through font */
 289:Core/Src/oled.c ****     for (uint32 i = 0; i < Font->FontHeight; i++) 
 1661              		.loc 1 289 17
 1662 0034 0023     		movs	r3, #0
 1663 0036 7B61     		str	r3, [r7, #20]
 1664              		.loc 1 289 5
 1665 0038 4AE0     		b	.L60
 1666              	.L65:
 1667              	.LBB9:
 290:Core/Src/oled.c ****     {
 291:Core/Src/oled.c ****         uint32 b = Font->data[ch * (Font->FontHeight) + i];
 1668              		.loc 1 291 24
 1669 003a 3B68     		ldr	r3, [r7]
 1670 003c 5A68     		ldr	r2, [r3, #4]
 1671              		.loc 1 291 34
 1672 003e FB79     		ldrb	r3, [r7, #7]	@ zero_extendqisi2
 1673              		.loc 1 291 41
 1674 0040 3968     		ldr	r1, [r7]
 1675 0042 4978     		ldrb	r1, [r1, #1]	@ zero_extendqisi2
 1676              		.loc 1 291 34
 1677 0044 01FB03F3 		mul	r3, r1, r3
 1678 0048 1946     		mov	r1, r3
 1679              		.loc 1 291 55
 1680 004a 7B69     		ldr	r3, [r7, #20]
 1681 004c 0B44     		add	r3, r3, r1
 1682              		.loc 1 291 30
 1683 004e 5B00     		lsls	r3, r3, #1
 1684 0050 1344     		add	r3, r3, r2
 1685 0052 1B88     		ldrh	r3, [r3]
 1686              		.loc 1 291 16
 1687 0054 FB60     		str	r3, [r7, #12]
 1688              	.LBB10:
 292:Core/Src/oled.c **** 
 293:Core/Src/oled.c ****         for (uint32 j = 0; j < Font->FontWidth; j++) 
 1689              		.loc 1 293 21
 1690 0056 0023     		movs	r3, #0
 1691 0058 3B61     		str	r3, [r7, #16]
 1692              		.loc 1 293 9
 1693 005a 30E0     		b	.L61
 1694              	.L64:
 294:Core/Src/oled.c ****         {
 295:Core/Src/oled.c ****             if ((b << j) & 0x8000) 
 1695              		.loc 1 295 20
 1696 005c FA68     		ldr	r2, [r7, #12]
ARM GAS  C:\Users\jisu8\AppData\Local\Temp\ccxQ4oye.s 			page 36


 1697 005e 3B69     		ldr	r3, [r7, #16]
 1698 0060 02FA03F3 		lsl	r3, r2, r3
 1699              		.loc 1 295 26
 1700 0064 03F40043 		and	r3, r3, #32768
 1701              		.loc 1 295 16
 1702 0068 002B     		cmp	r3, #0
 1703 006a 10D0     		beq	.L62
 296:Core/Src/oled.c ****             {
 297:Core/Src/oled.c ****                 OLED_DrawPixel(OLED.X_point + j, (OLED.Y_point + i), (OLED_COLOR_t) color);
 1704              		.loc 1 297 36
 1705 006c 224B     		ldr	r3, .L66
 1706 006e 1A88     		ldrh	r2, [r3]
 1707              		.loc 1 297 17
 1708 0070 3B69     		ldr	r3, [r7, #16]
 1709 0072 9BB2     		uxth	r3, r3
 1710 0074 1344     		add	r3, r3, r2
 1711 0076 98B2     		uxth	r0, r3
 1712              		.loc 1 297 55
 1713 0078 1F4B     		ldr	r3, .L66
 1714 007a 5A88     		ldrh	r2, [r3, #2]
 1715              		.loc 1 297 17
 1716 007c 7B69     		ldr	r3, [r7, #20]
 1717 007e 9BB2     		uxth	r3, r3
 1718 0080 1344     		add	r3, r3, r2
 1719 0082 9BB2     		uxth	r3, r3
 1720 0084 BA79     		ldrb	r2, [r7, #6]	@ zero_extendqisi2
 1721 0086 1946     		mov	r1, r3
 1722 0088 FFF7FEFF 		bl	OLED_DrawPixel
 1723 008c 14E0     		b	.L63
 1724              	.L62:
 298:Core/Src/oled.c ****             } 
 299:Core/Src/oled.c ****             else 
 300:Core/Src/oled.c ****             {
 301:Core/Src/oled.c ****                 OLED_DrawPixel(OLED.X_point + j, (OLED.Y_point + i), (OLED_COLOR_t)!color);
 1725              		.loc 1 301 36
 1726 008e 1A4B     		ldr	r3, .L66
 1727 0090 1A88     		ldrh	r2, [r3]
 1728              		.loc 1 301 17
 1729 0092 3B69     		ldr	r3, [r7, #16]
 1730 0094 9BB2     		uxth	r3, r3
 1731 0096 1344     		add	r3, r3, r2
 1732 0098 98B2     		uxth	r0, r3
 1733              		.loc 1 301 55
 1734 009a 174B     		ldr	r3, .L66
 1735 009c 5A88     		ldrh	r2, [r3, #2]
 1736              		.loc 1 301 17
 1737 009e 7B69     		ldr	r3, [r7, #20]
 1738 00a0 9BB2     		uxth	r3, r3
 1739 00a2 1344     		add	r3, r3, r2
 1740 00a4 99B2     		uxth	r1, r3
 1741 00a6 BB79     		ldrb	r3, [r7, #6]	@ zero_extendqisi2
 1742 00a8 002B     		cmp	r3, #0
 1743 00aa 0CBF     		ite	eq
 1744 00ac 0123     		moveq	r3, #1
 1745 00ae 0023     		movne	r3, #0
 1746 00b0 DBB2     		uxtb	r3, r3
 1747 00b2 1A46     		mov	r2, r3
ARM GAS  C:\Users\jisu8\AppData\Local\Temp\ccxQ4oye.s 			page 37


 1748 00b4 FFF7FEFF 		bl	OLED_DrawPixel
 1749              	.L63:
 293:Core/Src/oled.c ****         {
 1750              		.loc 1 293 50 discriminator 2
 1751 00b8 3B69     		ldr	r3, [r7, #16]
 1752 00ba 0133     		adds	r3, r3, #1
 1753 00bc 3B61     		str	r3, [r7, #16]
 1754              	.L61:
 293:Core/Src/oled.c ****         {
 1755              		.loc 1 293 36 discriminator 1
 1756 00be 3B68     		ldr	r3, [r7]
 1757 00c0 1B78     		ldrb	r3, [r3]	@ zero_extendqisi2
 1758 00c2 1A46     		mov	r2, r3
 293:Core/Src/oled.c ****         {
 1759              		.loc 1 293 9 discriminator 1
 1760 00c4 3B69     		ldr	r3, [r7, #16]
 1761 00c6 9342     		cmp	r3, r2
 1762 00c8 C8D3     		bcc	.L64
 1763              	.LBE10:
 1764              	.LBE9:
 289:Core/Src/oled.c ****     {
 1765              		.loc 1 289 47 discriminator 2
 1766 00ca 7B69     		ldr	r3, [r7, #20]
 1767 00cc 0133     		adds	r3, r3, #1
 1768 00ce 7B61     		str	r3, [r7, #20]
 1769              	.L60:
 289:Core/Src/oled.c ****     {
 1770              		.loc 1 289 32 discriminator 1
 1771 00d0 3B68     		ldr	r3, [r7]
 1772 00d2 5B78     		ldrb	r3, [r3, #1]	@ zero_extendqisi2
 1773 00d4 1A46     		mov	r2, r3
 289:Core/Src/oled.c ****     {
 1774              		.loc 1 289 5 discriminator 1
 1775 00d6 7B69     		ldr	r3, [r7, #20]
 1776 00d8 9342     		cmp	r3, r2
 1777 00da AED3     		bcc	.L65
 1778              	.LBE8:
 302:Core/Src/oled.c ****             }
 303:Core/Src/oled.c ****         }
 304:Core/Src/oled.c ****     }
 305:Core/Src/oled.c **** 
 306:Core/Src/oled.c ****     /* Increase pointer */
 307:Core/Src/oled.c ****     OLED.X_point += Font->FontWidth;
 1779              		.loc 1 307 18
 1780 00dc 064B     		ldr	r3, .L66
 1781 00de 1A88     		ldrh	r2, [r3]
 1782              		.loc 1 307 25
 1783 00e0 3B68     		ldr	r3, [r7]
 1784 00e2 1B78     		ldrb	r3, [r3]	@ zero_extendqisi2
 1785 00e4 9BB2     		uxth	r3, r3
 1786              		.loc 1 307 18
 1787 00e6 1344     		add	r3, r3, r2
 1788 00e8 9AB2     		uxth	r2, r3
 1789 00ea 034B     		ldr	r3, .L66
 1790 00ec 1A80     		strh	r2, [r3]	@ movhi
 308:Core/Src/oled.c **** 
 309:Core/Src/oled.c ****     /* Return character written */
ARM GAS  C:\Users\jisu8\AppData\Local\Temp\ccxQ4oye.s 			page 38


 310:Core/Src/oled.c ****     return ch;
 1791              		.loc 1 310 12
 1792 00ee FB79     		ldrb	r3, [r7, #7]	@ zero_extendqisi2
 1793              	.L59:
 311:Core/Src/oled.c **** }
 1794              		.loc 1 311 1
 1795 00f0 1846     		mov	r0, r3
 1796 00f2 1837     		adds	r7, r7, #24
 1797              	.LCFI47:
 1798              		.cfi_def_cfa_offset 8
 1799 00f4 BD46     		mov	sp, r7
 1800              	.LCFI48:
 1801              		.cfi_def_cfa_register 13
 1802              		@ sp needed
 1803 00f6 80BD     		pop	{r7, pc}
 1804              	.L67:
 1805              		.align	2
 1806              	.L66:
 1807 00f8 00000000 		.word	OLED
 1808              		.cfi_endproc
 1809              	.LFE74:
 1811              		.section	.text.OLED_Set_Str,"ax",%progbits
 1812              		.align	1
 1813              		.syntax unified
 1814              		.thumb
 1815              		.thumb_func
 1817              	OLED_Set_Str:
 1818              	.LFB75:
 312:Core/Src/oled.c **** 
 313:Core/Src/oled.c **** static char OLED_Set_Str(char* str, OLED_Font_t* Font, OLED_COLOR_t color) 
 314:Core/Src/oled.c **** {
 1819              		.loc 1 314 1
 1820              		.cfi_startproc
 1821              		@ args = 0, pretend = 0, frame = 16
 1822              		@ frame_needed = 1, uses_anonymous_args = 0
 1823 0000 80B5     		push	{r7, lr}
 1824              	.LCFI49:
 1825              		.cfi_def_cfa_offset 8
 1826              		.cfi_offset 7, -8
 1827              		.cfi_offset 14, -4
 1828 0002 84B0     		sub	sp, sp, #16
 1829              	.LCFI50:
 1830              		.cfi_def_cfa_offset 24
 1831 0004 00AF     		add	r7, sp, #0
 1832              	.LCFI51:
 1833              		.cfi_def_cfa_register 7
 1834 0006 F860     		str	r0, [r7, #12]
 1835 0008 B960     		str	r1, [r7, #8]
 1836 000a 1346     		mov	r3, r2
 1837 000c FB71     		strb	r3, [r7, #7]
 315:Core/Src/oled.c ****     /* Write characters */
 316:Core/Src/oled.c ****     while (*str) 
 1838              		.loc 1 316 11
 1839 000e 12E0     		b	.L69
 1840              	.L72:
 317:Core/Src/oled.c ****     {
 318:Core/Src/oled.c ****         /* Write character by character */
ARM GAS  C:\Users\jisu8\AppData\Local\Temp\ccxQ4oye.s 			page 39


 319:Core/Src/oled.c ****         if (OLED_Set_Char(*str, Font, color) != *str) 
 1841              		.loc 1 319 13
 1842 0010 FB68     		ldr	r3, [r7, #12]
 1843 0012 1B78     		ldrb	r3, [r3]	@ zero_extendqisi2
 1844 0014 FA79     		ldrb	r2, [r7, #7]	@ zero_extendqisi2
 1845 0016 B968     		ldr	r1, [r7, #8]
 1846 0018 1846     		mov	r0, r3
 1847 001a FFF7FEFF 		bl	OLED_Set_Char
 1848 001e 0346     		mov	r3, r0
 1849 0020 1A46     		mov	r2, r3
 1850              		.loc 1 319 49
 1851 0022 FB68     		ldr	r3, [r7, #12]
 1852 0024 1B78     		ldrb	r3, [r3]	@ zero_extendqisi2
 1853              		.loc 1 319 12
 1854 0026 9A42     		cmp	r2, r3
 1855 0028 02D0     		beq	.L70
 320:Core/Src/oled.c ****         {
 321:Core/Src/oled.c ****             /* Return error */
 322:Core/Src/oled.c ****             return *str;
 1856              		.loc 1 322 20
 1857 002a FB68     		ldr	r3, [r7, #12]
 1858 002c 1B78     		ldrb	r3, [r3]	@ zero_extendqisi2
 1859 002e 08E0     		b	.L71
 1860              	.L70:
 323:Core/Src/oled.c ****         }
 324:Core/Src/oled.c **** 
 325:Core/Src/oled.c ****         /* Increase string pointer */
 326:Core/Src/oled.c ****         str++;
 1861              		.loc 1 326 12
 1862 0030 FB68     		ldr	r3, [r7, #12]
 1863 0032 0133     		adds	r3, r3, #1
 1864 0034 FB60     		str	r3, [r7, #12]
 1865              	.L69:
 316:Core/Src/oled.c ****     {
 1866              		.loc 1 316 12
 1867 0036 FB68     		ldr	r3, [r7, #12]
 1868 0038 1B78     		ldrb	r3, [r3]	@ zero_extendqisi2
 316:Core/Src/oled.c ****     {
 1869              		.loc 1 316 11
 1870 003a 002B     		cmp	r3, #0
 1871 003c E8D1     		bne	.L72
 327:Core/Src/oled.c ****     }
 328:Core/Src/oled.c **** 
 329:Core/Src/oled.c ****     /* Everything OK, zero should be returned */
 330:Core/Src/oled.c ****     return *str;
 1872              		.loc 1 330 12
 1873 003e FB68     		ldr	r3, [r7, #12]
 1874 0040 1B78     		ldrb	r3, [r3]	@ zero_extendqisi2
 1875              	.L71:
 331:Core/Src/oled.c **** }
 1876              		.loc 1 331 1
 1877 0042 1846     		mov	r0, r3
 1878 0044 1037     		adds	r7, r7, #16
 1879              	.LCFI52:
 1880              		.cfi_def_cfa_offset 8
 1881 0046 BD46     		mov	sp, r7
 1882              	.LCFI53:
ARM GAS  C:\Users\jisu8\AppData\Local\Temp\ccxQ4oye.s 			page 40


 1883              		.cfi_def_cfa_register 13
 1884              		@ sp needed
 1885 0048 80BD     		pop	{r7, pc}
 1886              		.cfi_endproc
 1887              	.LFE75:
 1889              		.section	.text.OLED_DrawPixel,"ax",%progbits
 1890              		.align	1
 1891              		.syntax unified
 1892              		.thumb
 1893              		.thumb_func
 1895              	OLED_DrawPixel:
 1896              	.LFB76:
 332:Core/Src/oled.c **** 
 333:Core/Src/oled.c **** static void OLED_DrawPixel(uint16 x, uint16 y, OLED_COLOR_t color) 
 334:Core/Src/oled.c **** {
 1897              		.loc 1 334 1
 1898              		.cfi_startproc
 1899              		@ args = 0, pretend = 0, frame = 8
 1900              		@ frame_needed = 1, uses_anonymous_args = 0
 1901              		@ link register save eliminated.
 1902 0000 80B4     		push	{r7}
 1903              	.LCFI54:
 1904              		.cfi_def_cfa_offset 4
 1905              		.cfi_offset 7, -4
 1906 0002 83B0     		sub	sp, sp, #12
 1907              	.LCFI55:
 1908              		.cfi_def_cfa_offset 16
 1909 0004 00AF     		add	r7, sp, #0
 1910              	.LCFI56:
 1911              		.cfi_def_cfa_register 7
 1912 0006 0346     		mov	r3, r0
 1913 0008 FB80     		strh	r3, [r7, #6]	@ movhi
 1914 000a 0B46     		mov	r3, r1	@ movhi
 1915 000c BB80     		strh	r3, [r7, #4]	@ movhi
 1916 000e 1346     		mov	r3, r2
 1917 0010 FB70     		strb	r3, [r7, #3]
 335:Core/Src/oled.c ****     if ((x >= OLED_WIDTH) || (y >= OLED_HEIGHT)) 
 1918              		.loc 1 335 8
 1919 0012 FB88     		ldrh	r3, [r7, #6]
 1920 0014 7F2B     		cmp	r3, #127
 1921 0016 3DD8     		bhi	.L78
 1922              		.loc 1 335 27 discriminator 1
 1923 0018 BB88     		ldrh	r3, [r7, #4]
 1924 001a 1F2B     		cmp	r3, #31
 1925 001c 3AD8     		bhi	.L78
 336:Core/Src/oled.c ****     {
 337:Core/Src/oled.c ****         /* Error */
 338:Core/Src/oled.c ****         return;
 339:Core/Src/oled.c ****     }
 340:Core/Src/oled.c **** 
 341:Core/Src/oled.c ****     /* Set color */
 342:Core/Src/oled.c ****     if (color == OLED_COLOR_WHITE) 
 1926              		.loc 1 342 8
 1927 001e FB78     		ldrb	r3, [r7, #3]	@ zero_extendqisi2
 1928 0020 012B     		cmp	r3, #1
 1929 0022 1AD1     		bne	.L77
 343:Core/Src/oled.c ****     {
ARM GAS  C:\Users\jisu8\AppData\Local\Temp\ccxQ4oye.s 			page 41


 344:Core/Src/oled.c ****         OLED_Buffer[x + (y / 8) * OLED_WIDTH] |= 1 << (y % 8);
 1930              		.loc 1 344 47
 1931 0024 FA88     		ldrh	r2, [r7, #6]
 1932 0026 BB88     		ldrh	r3, [r7, #4]
 1933 0028 DB08     		lsrs	r3, r3, #3
 1934 002a 98B2     		uxth	r0, r3
 1935 002c 0346     		mov	r3, r0
 1936 002e DB01     		lsls	r3, r3, #7
 1937 0030 1344     		add	r3, r3, r2
 1938 0032 1B4A     		ldr	r2, .L79
 1939 0034 D35C     		ldrb	r3, [r2, r3]	@ zero_extendqisi2
 1940 0036 5AB2     		sxtb	r2, r3
 1941              		.loc 1 344 58
 1942 0038 BB88     		ldrh	r3, [r7, #4]
 1943 003a 03F00703 		and	r3, r3, #7
 1944              		.loc 1 344 52
 1945 003e 0121     		movs	r1, #1
 1946 0040 01FA03F3 		lsl	r3, r1, r3
 1947              		.loc 1 344 47
 1948 0044 5BB2     		sxtb	r3, r3
 1949 0046 1343     		orrs	r3, r3, r2
 1950 0048 59B2     		sxtb	r1, r3
 1951 004a FA88     		ldrh	r2, [r7, #6]
 1952 004c 0346     		mov	r3, r0
 1953 004e DB01     		lsls	r3, r3, #7
 1954 0050 1344     		add	r3, r3, r2
 1955 0052 C9B2     		uxtb	r1, r1
 1956 0054 124A     		ldr	r2, .L79
 1957 0056 D154     		strb	r1, [r2, r3]
 1958 0058 1DE0     		b	.L73
 1959              	.L77:
 345:Core/Src/oled.c ****     } 
 346:Core/Src/oled.c ****     else 
 347:Core/Src/oled.c ****     {
 348:Core/Src/oled.c ****         OLED_Buffer[x + (y / 8) * OLED_WIDTH] &= ~(1 << (y % 8));
 1960              		.loc 1 348 47
 1961 005a FA88     		ldrh	r2, [r7, #6]
 1962 005c BB88     		ldrh	r3, [r7, #4]
 1963 005e DB08     		lsrs	r3, r3, #3
 1964 0060 98B2     		uxth	r0, r3
 1965 0062 0346     		mov	r3, r0
 1966 0064 DB01     		lsls	r3, r3, #7
 1967 0066 1344     		add	r3, r3, r2
 1968 0068 0D4A     		ldr	r2, .L79
 1969 006a D35C     		ldrb	r3, [r2, r3]	@ zero_extendqisi2
 1970 006c 5AB2     		sxtb	r2, r3
 1971              		.loc 1 348 60
 1972 006e BB88     		ldrh	r3, [r7, #4]
 1973 0070 03F00703 		and	r3, r3, #7
 1974              		.loc 1 348 54
 1975 0074 0121     		movs	r1, #1
 1976 0076 01FA03F3 		lsl	r3, r1, r3
 1977              		.loc 1 348 47
 1978 007a 5BB2     		sxtb	r3, r3
 1979 007c DB43     		mvns	r3, r3
 1980 007e 5BB2     		sxtb	r3, r3
 1981 0080 1340     		ands	r3, r3, r2
ARM GAS  C:\Users\jisu8\AppData\Local\Temp\ccxQ4oye.s 			page 42


 1982 0082 59B2     		sxtb	r1, r3
 1983 0084 FA88     		ldrh	r2, [r7, #6]
 1984 0086 0346     		mov	r3, r0
 1985 0088 DB01     		lsls	r3, r3, #7
 1986 008a 1344     		add	r3, r3, r2
 1987 008c C9B2     		uxtb	r1, r1
 1988 008e 044A     		ldr	r2, .L79
 1989 0090 D154     		strb	r1, [r2, r3]
 1990 0092 00E0     		b	.L73
 1991              	.L78:
 338:Core/Src/oled.c ****     }
 1992              		.loc 1 338 9
 1993 0094 00BF     		nop
 1994              	.L73:
 349:Core/Src/oled.c ****     }
 350:Core/Src/oled.c **** }...
 1995              		.loc 1 350 1
 1996 0096 0C37     		adds	r7, r7, #12
 1997              	.LCFI57:
 1998              		.cfi_def_cfa_offset 4
 1999 0098 BD46     		mov	sp, r7
 2000              	.LCFI58:
 2001              		.cfi_def_cfa_register 13
 2002              		@ sp needed
 2003 009a 80BC     		pop	{r7}
 2004              	.LCFI59:
 2005              		.cfi_restore 7
 2006              		.cfi_def_cfa_offset 0
 2007 009c 7047     		bx	lr
 2008              	.L80:
 2009 009e 00BF     		.align	2
 2010              	.L79:
 2011 00a0 00000000 		.word	OLED_Buffer
 2012              		.cfi_endproc
 2013              	.LFE76:
 2015              		.text
 2016              	.Letext0:
 2017              		.file 2 "d:\\3.tools\\arm_gcc_toolchain\\arm-none-eabi\\include\\machine\\_default_types.h"
 2018              		.file 3 "d:\\3.tools\\arm_gcc_toolchain\\arm-none-eabi\\include\\sys\\_stdint.h"
 2019              		.file 4 "Drivers/CMSIS/Device/ST/STM32F1xx/Include/stm32f103xb.h"
 2020              		.file 5 "Drivers/STM32F1xx_HAL_Driver/Inc/stm32f1xx_hal_def.h"
 2021              		.file 6 "Drivers/STM32F1xx_HAL_Driver/Inc/stm32f1xx_hal_dma.h"
 2022              		.file 7 "Drivers/STM32F1xx_HAL_Driver/Inc/stm32f1xx_hal_i2c.h"
 2023              		.file 8 "Core/Inc/vardef.h"
 2024              		.file 9 "Core/Inc/oled_fonts.h"
 2025              		.file 10 "Core/Inc/main.h"
 2026              		.file 11 "Core/Inc/switch.h"
 2027              		.file 12 "Core/Inc/oled.h"
 2028              		.file 13 "<built-in>"
ARM GAS  C:\Users\jisu8\AppData\Local\Temp\ccxQ4oye.s 			page 43


DEFINED SYMBOLS
                            *ABS*:00000000 oled.c
C:\Users\jisu8\AppData\Local\Temp\ccxQ4oye.s:21     .bss.OLED_Address:00000000 OLED_Address
C:\Users\jisu8\AppData\Local\Temp\ccxQ4oye.s:22     .bss.OLED_Address:00000000 $d
C:\Users\jisu8\AppData\Local\Temp\ccxQ4oye.s:28     .bss.OLED:00000000 OLED
C:\Users\jisu8\AppData\Local\Temp\ccxQ4oye.s:25     .bss.OLED:00000000 $d
C:\Users\jisu8\AppData\Local\Temp\ccxQ4oye.s:35     .data.OLED_WRITE:00000000 OLED_WRITE
C:\Users\jisu8\AppData\Local\Temp\ccxQ4oye.s:32     .data.OLED_WRITE:00000000 $d
C:\Users\jisu8\AppData\Local\Temp\ccxQ4oye.s:42     .bss.Tx_data:00000000 Tx_data
C:\Users\jisu8\AppData\Local\Temp\ccxQ4oye.s:39     .bss.Tx_data:00000000 $d
C:\Users\jisu8\AppData\Local\Temp\ccxQ4oye.s:45     .bss.OLED_Buffer:00000000 $d
C:\Users\jisu8\AppData\Local\Temp\ccxQ4oye.s:48     .bss.OLED_Buffer:00000000 OLED_Buffer
C:\Users\jisu8\AppData\Local\Temp\ccxQ4oye.s:51     .text.OLED_FindAddress:00000000 $t
C:\Users\jisu8\AppData\Local\Temp\ccxQ4oye.s:57     .text.OLED_FindAddress:00000000 OLED_FindAddress
C:\Users\jisu8\AppData\Local\Temp\ccxQ4oye.s:98     .text.OLED_FindAddress:0000002c $d
C:\Users\jisu8\AppData\Local\Temp\ccxQ4oye.s:104    .rodata:00000000 $d
C:\Users\jisu8\AppData\Local\Temp\ccxQ4oye.s:108    .text.OLED_Init:00000000 $t
C:\Users\jisu8\AppData\Local\Temp\ccxQ4oye.s:114    .text.OLED_Init:00000000 OLED_Init
C:\Users\jisu8\AppData\Local\Temp\ccxQ4oye.s:1351   .text.OLED_Write_Command:00000000 OLED_Write_Command
C:\Users\jisu8\AppData\Local\Temp\ccxQ4oye.s:1406   .text.OLED_Fill_Screen:00000000 OLED_Fill_Screen
C:\Users\jisu8\AppData\Local\Temp\ccxQ4oye.s:1464   .text.OLED_Update_Screen:00000000 OLED_Update_Screen
C:\Users\jisu8\AppData\Local\Temp\ccxQ4oye.s:1152   .text.Clear_TxBuffer:00000000 Clear_TxBuffer
C:\Users\jisu8\AppData\Local\Temp\ccxQ4oye.s:1220   .text.Print_TxBuffer:00000000 Print_TxBuffer
C:\Users\jisu8\AppData\Local\Temp\ccxQ4oye.s:258    .text.OLED_Init:000000ec $d
C:\Users\jisu8\AppData\Local\Temp\ccxQ4oye.s:289    .text.OLED_Display:00000000 $t
C:\Users\jisu8\AppData\Local\Temp\ccxQ4oye.s:295    .text.OLED_Display:00000000 OLED_Display
C:\Users\jisu8\AppData\Local\Temp\ccxQ4oye.s:729    .text.OLED_Display:000002dc $d
C:\Users\jisu8\AppData\Local\Temp\ccxQ4oye.s:747    .text.OLED_Display:0000031c $t
C:\Users\jisu8\AppData\Local\Temp\ccxQ4oye.s:1131   .text.OLED_Display:0000058c $d
C:\Users\jisu8\AppData\Local\Temp\ccxQ4oye.s:1147   .text.Clear_TxBuffer:00000000 $t
C:\Users\jisu8\AppData\Local\Temp\ccxQ4oye.s:1210   .text.Clear_TxBuffer:00000030 $d
C:\Users\jisu8\AppData\Local\Temp\ccxQ4oye.s:1215   .text.Print_TxBuffer:00000000 $t
C:\Users\jisu8\AppData\Local\Temp\ccxQ4oye.s:1552   .text.OLED_Set_X_Y:00000000 OLED_Set_X_Y
C:\Users\jisu8\AppData\Local\Temp\ccxQ4oye.s:1609   .text.OLED_Set_Char:00000000 OLED_Set_Char
C:\Users\jisu8\AppData\Local\Temp\ccxQ4oye.s:1340   .text.Print_TxBuffer:0000009c $d
C:\Users\jisu8\AppData\Local\Temp\ccxQ4oye.s:1346   .text.OLED_Write_Command:00000000 $t
C:\Users\jisu8\AppData\Local\Temp\ccxQ4oye.s:1396   .text.OLED_Write_Command:00000030 $d
C:\Users\jisu8\AppData\Local\Temp\ccxQ4oye.s:1401   .text.OLED_Fill_Screen:00000000 $t
C:\Users\jisu8\AppData\Local\Temp\ccxQ4oye.s:1454   .text.OLED_Fill_Screen:0000002c $d
C:\Users\jisu8\AppData\Local\Temp\ccxQ4oye.s:1459   .text.OLED_Update_Screen:00000000 $t
C:\Users\jisu8\AppData\Local\Temp\ccxQ4oye.s:1541   .text.OLED_Update_Screen:0000005c $d
C:\Users\jisu8\AppData\Local\Temp\ccxQ4oye.s:1547   .text.OLED_Set_X_Y:00000000 $t
C:\Users\jisu8\AppData\Local\Temp\ccxQ4oye.s:1599   .text.OLED_Set_X_Y:00000028 $d
C:\Users\jisu8\AppData\Local\Temp\ccxQ4oye.s:1604   .text.OLED_Set_Char:00000000 $t
C:\Users\jisu8\AppData\Local\Temp\ccxQ4oye.s:1895   .text.OLED_DrawPixel:00000000 OLED_DrawPixel
C:\Users\jisu8\AppData\Local\Temp\ccxQ4oye.s:1807   .text.OLED_Set_Char:000000f8 $d
C:\Users\jisu8\AppData\Local\Temp\ccxQ4oye.s:1812   .text.OLED_Set_Str:00000000 $t
C:\Users\jisu8\AppData\Local\Temp\ccxQ4oye.s:1817   .text.OLED_Set_Str:00000000 OLED_Set_Str
C:\Users\jisu8\AppData\Local\Temp\ccxQ4oye.s:1890   .text.OLED_DrawPixel:00000000 $t
C:\Users\jisu8\AppData\Local\Temp\ccxQ4oye.s:2011   .text.OLED_DrawPixel:000000a0 $d

UNDEFINED SYMBOLS
HAL_I2C_IsDeviceReady
hi2c1
sprintf
strlen
switch_mode
ARM GAS  C:\Users\jisu8\AppData\Local\Temp\ccxQ4oye.s 			page 44


Target_Run_Time
Temp_Adc_TP
switch_submode
CO2_Data16
OLED_Font_7x10
HAL_I2C_Master_Transmit
memset
HAL_I2C_Mem_Write
