ARM GAS  C:\Users\jisu8\AppData\Local\Temp\ccUSo9Ur.s 			page 1


   1              		.cpu cortex-m3
   2              		.arch armv7-m
   3              		.fpu softvfp
   4              		.eabi_attribute 20, 1
   5              		.eabi_attribute 21, 1
   6              		.eabi_attribute 23, 3
   7              		.eabi_attribute 24, 1
   8              		.eabi_attribute 25, 1
   9              		.eabi_attribute 26, 1
  10              		.eabi_attribute 30, 6
  11              		.eabi_attribute 34, 1
  12              		.eabi_attribute 18, 4
  13              		.file	"os.c"
  14              		.text
  15              	.Ltext0:
  16              		.cfi_sections	.debug_frame
  17              		.global	Os_Var
  18              		.section	.bss.Os_Var,"aw",%nobits
  19              		.align	2
  22              	Os_Var:
  23 0000 00000000 		.space	100
  23      00000000 
  23      00000000 
  23      00000000 
  23      00000000 
  24              		.section	.text.Os_Init_Task,"ax",%progbits
  25              		.align	1
  26              		.global	Os_Init_Task
  27              		.syntax unified
  28              		.thumb
  29              		.thumb_func
  31              	Os_Init_Task:
  32              	.LFB65:
  33              		.file 1 "Core/Src/os.c"
   1:Core/Src/os.c **** #include "os.h"
   2:Core/Src/os.c **** #include "led.h"
   3:Core/Src/os.c **** #include "pwm.h"
   4:Core/Src/os.c **** #include "switch.h"
   5:Core/Src/os.c **** #include "oled.h"
   6:Core/Src/os.c **** #include "temp.h"
   7:Core/Src/os.c **** #include "co2.h"
   8:Core/Src/os.c **** #include "eeprom.h"
   9:Core/Src/os.c **** 
  10:Core/Src/os.c **** Os_Var_t Os_Var;
  11:Core/Src/os.c **** 
  12:Core/Src/os.c **** static void Os_Calc_Period(uint8 idx);
  13:Core/Src/os.c **** static void Os_Calc_Runtime_Start(uint8 idx);
  14:Core/Src/os.c **** static void Os_Calc_Runtime_Stop(uint8 idx);
  15:Core/Src/os.c **** static void Os_1ms_Task(void);
  16:Core/Src/os.c **** static void Os_10ms_Task(void);
  17:Core/Src/os.c **** static void Os_100ms_Task(void);
  18:Core/Src/os.c **** static void Os_Background_Task(void);
  19:Core/Src/os.c **** 
  20:Core/Src/os.c **** void Os_Init_Task(void)
  21:Core/Src/os.c **** {
  34              		.loc 1 21 1
  35              		.cfi_startproc
ARM GAS  C:\Users\jisu8\AppData\Local\Temp\ccUSo9Ur.s 			page 2


  36              		@ args = 0, pretend = 0, frame = 0
  37              		@ frame_needed = 1, uses_anonymous_args = 0
  38 0000 80B5     		push	{r7, lr}
  39              	.LCFI0:
  40              		.cfi_def_cfa_offset 8
  41              		.cfi_offset 7, -8
  42              		.cfi_offset 14, -4
  43 0002 00AF     		add	r7, sp, #0
  44              	.LCFI1:
  45              		.cfi_def_cfa_register 7
  22:Core/Src/os.c **** 	OLED_Init();
  46              		.loc 1 22 2
  47 0004 FFF7FEFF 		bl	OLED_Init
  23:Core/Src/os.c **** 	CO2_Init();
  48              		.loc 1 23 2
  49 0008 FFF7FEFF 		bl	CO2_Init
  24:Core/Src/os.c **** 	Switch_Val_Init();
  50              		.loc 1 24 2
  51 000c FFF7FEFF 		bl	Switch_Val_Init
  25:Core/Src/os.c **** 	//flashInit();
  26:Core/Src/os.c **** 	//eepromInit();
  27:Core/Src/os.c **** 	//Blutooth_Init();
  28:Core/Src/os.c **** }
  52              		.loc 1 28 1
  53 0010 00BF     		nop
  54 0012 80BD     		pop	{r7, pc}
  55              		.cfi_endproc
  56              	.LFE65:
  58              		.section	.text.Os_1ms_Task,"ax",%progbits
  59              		.align	1
  60              		.syntax unified
  61              		.thumb
  62              		.thumb_func
  64              	Os_1ms_Task:
  65              	.LFB66:
  29:Core/Src/os.c **** static void Os_1ms_Task(void)
  30:Core/Src/os.c **** {
  66              		.loc 1 30 1
  67              		.cfi_startproc
  68              		@ args = 0, pretend = 0, frame = 0
  69              		@ frame_needed = 1, uses_anonymous_args = 0
  70              		@ link register save eliminated.
  71 0000 80B4     		push	{r7}
  72              	.LCFI2:
  73              		.cfi_def_cfa_offset 4
  74              		.cfi_offset 7, -4
  75 0002 00AF     		add	r7, sp, #0
  76              	.LCFI3:
  77              		.cfi_def_cfa_register 7
  31:Core/Src/os.c **** 
  32:Core/Src/os.c **** }
  78              		.loc 1 32 1
  79 0004 00BF     		nop
  80 0006 BD46     		mov	sp, r7
  81              	.LCFI4:
  82              		.cfi_def_cfa_register 13
  83              		@ sp needed
ARM GAS  C:\Users\jisu8\AppData\Local\Temp\ccUSo9Ur.s 			page 3


  84 0008 80BC     		pop	{r7}
  85              	.LCFI5:
  86              		.cfi_restore 7
  87              		.cfi_def_cfa_offset 0
  88 000a 7047     		bx	lr
  89              		.cfi_endproc
  90              	.LFE66:
  92              		.section	.text.Os_10ms_Task,"ax",%progbits
  93              		.align	1
  94              		.syntax unified
  95              		.thumb
  96              		.thumb_func
  98              	Os_10ms_Task:
  99              	.LFB67:
  33:Core/Src/os.c **** 
  34:Core/Src/os.c **** static void Os_10ms_Task(void)
  35:Core/Src/os.c **** {
 100              		.loc 1 35 1
 101              		.cfi_startproc
 102              		@ args = 0, pretend = 0, frame = 0
 103              		@ frame_needed = 1, uses_anonymous_args = 0
 104 0000 80B5     		push	{r7, lr}
 105              	.LCFI6:
 106              		.cfi_def_cfa_offset 8
 107              		.cfi_offset 7, -8
 108              		.cfi_offset 14, -4
 109 0002 00AF     		add	r7, sp, #0
 110              	.LCFI7:
 111              		.cfi_def_cfa_register 7
  36:Core/Src/os.c **** 	//OLED_FindAddress();
  37:Core/Src/os.c **** 	Pwm_Output();
 112              		.loc 1 37 2
 113 0004 FFF7FEFF 		bl	Pwm_Output
  38:Core/Src/os.c **** 	Switch_Control();
 114              		.loc 1 38 2
 115 0008 FFF7FEFF 		bl	Switch_Control
  39:Core/Src/os.c **** 	Temp_Read();
 116              		.loc 1 39 2
 117 000c FFF7FEFF 		bl	Temp_Read
  40:Core/Src/os.c **** 	CO2_Communication();
 118              		.loc 1 40 2
 119 0010 FFF7FEFF 		bl	CO2_Communication
  41:Core/Src/os.c **** 	//Blutooth_Communication();
  42:Core/Src/os.c **** }
 120              		.loc 1 42 1
 121 0014 00BF     		nop
 122 0016 80BD     		pop	{r7, pc}
 123              		.cfi_endproc
 124              	.LFE67:
 126              		.global	switch_mode_old
 127              		.section	.bss.switch_mode_old,"aw",%nobits
 130              	switch_mode_old:
 131 0000 00       		.space	1
 132              		.section	.text.Os_100ms_Task,"ax",%progbits
 133              		.align	1
 134              		.syntax unified
 135              		.thumb
ARM GAS  C:\Users\jisu8\AppData\Local\Temp\ccUSo9Ur.s 			page 4


 136              		.thumb_func
 138              	Os_100ms_Task:
 139              	.LFB68:
  43:Core/Src/os.c **** uint8 switch_mode_old;
  44:Core/Src/os.c **** static void Os_100ms_Task(void)
  45:Core/Src/os.c **** {
 140              		.loc 1 45 1
 141              		.cfi_startproc
 142              		@ args = 0, pretend = 0, frame = 0
 143              		@ frame_needed = 1, uses_anonymous_args = 0
 144 0000 80B5     		push	{r7, lr}
 145              	.LCFI8:
 146              		.cfi_def_cfa_offset 8
 147              		.cfi_offset 7, -8
 148              		.cfi_offset 14, -4
 149 0002 00AF     		add	r7, sp, #0
 150              	.LCFI9:
 151              		.cfi_def_cfa_register 7
  46:Core/Src/os.c **** 
  47:Core/Src/os.c **** 	LED_Control();
 152              		.loc 1 47 2
 153 0004 FFF7FEFF 		bl	LED_Control
  48:Core/Src/os.c **** 	OLED_Display();
 154              		.loc 1 48 2
 155 0008 FFF7FEFF 		bl	OLED_Display
  49:Core/Src/os.c **** 	if((switch_mode_old == SWITCH_MODE_MENUSELECT)&&(switch_mode == SWITCH_MODE_RUN))
 156              		.loc 1 49 22
 157 000c 084B     		ldr	r3, .L6
 158 000e 1B78     		ldrb	r3, [r3]	@ zero_extendqisi2
 159              		.loc 1 49 4
 160 0010 012B     		cmp	r3, #1
 161 0012 07D1     		bne	.L5
 162              		.loc 1 49 63 discriminator 1
 163 0014 074B     		ldr	r3, .L6+4
 164 0016 1B78     		ldrb	r3, [r3]	@ zero_extendqisi2
 165              		.loc 1 49 48 discriminator 1
 166 0018 022B     		cmp	r3, #2
 167 001a 03D1     		bne	.L5
  50:Core/Src/os.c **** 	{
  51:Core/Src/os.c **** 		EEPROM_Erase();
 168              		.loc 1 51 3
 169 001c FFF7FEFF 		bl	EEPROM_Erase
  52:Core/Src/os.c **** 		EEPROM_Write();
 170              		.loc 1 52 3
 171 0020 FFF7FEFF 		bl	EEPROM_Write
 172              	.L5:
  53:Core/Src/os.c **** 	}
  54:Core/Src/os.c **** 	switch_mode_old = switch_mode;
 173              		.loc 1 54 18
 174 0024 034B     		ldr	r3, .L6+4
 175 0026 1A78     		ldrb	r2, [r3]	@ zero_extendqisi2
 176 0028 014B     		ldr	r3, .L6
 177 002a 1A70     		strb	r2, [r3]
  55:Core/Src/os.c **** }
 178              		.loc 1 55 1
 179 002c 00BF     		nop
 180 002e 80BD     		pop	{r7, pc}
ARM GAS  C:\Users\jisu8\AppData\Local\Temp\ccUSo9Ur.s 			page 5


 181              	.L7:
 182              		.align	2
 183              	.L6:
 184 0030 00000000 		.word	switch_mode_old
 185 0034 00000000 		.word	switch_mode
 186              		.cfi_endproc
 187              	.LFE68:
 189              		.section	.text.Os_Background_Task,"ax",%progbits
 190              		.align	1
 191              		.syntax unified
 192              		.thumb
 193              		.thumb_func
 195              	Os_Background_Task:
 196              	.LFB69:
  56:Core/Src/os.c **** 
  57:Core/Src/os.c **** static void Os_Background_Task(void)
  58:Core/Src/os.c **** {
 197              		.loc 1 58 1
 198              		.cfi_startproc
 199              		@ args = 0, pretend = 0, frame = 0
 200              		@ frame_needed = 1, uses_anonymous_args = 0
 201              		@ link register save eliminated.
 202 0000 80B4     		push	{r7}
 203              	.LCFI10:
 204              		.cfi_def_cfa_offset 4
 205              		.cfi_offset 7, -4
 206 0002 00AF     		add	r7, sp, #0
 207              	.LCFI11:
 208              		.cfi_def_cfa_register 7
  59:Core/Src/os.c **** 
  60:Core/Src/os.c **** }
 209              		.loc 1 60 1
 210 0004 00BF     		nop
 211 0006 BD46     		mov	sp, r7
 212              	.LCFI12:
 213              		.cfi_def_cfa_register 13
 214              		@ sp needed
 215 0008 80BC     		pop	{r7}
 216              	.LCFI13:
 217              		.cfi_restore 7
 218              		.cfi_def_cfa_offset 0
 219 000a 7047     		bx	lr
 220              		.cfi_endproc
 221              	.LFE69:
 223              		.section	.text.Os_Time_Handler,"ax",%progbits
 224              		.align	1
 225              		.global	Os_Time_Handler
 226              		.syntax unified
 227              		.thumb
 228              		.thumb_func
 230              	Os_Time_Handler:
 231              	.LFB70:
  61:Core/Src/os.c **** 
  62:Core/Src/os.c **** void Os_Time_Handler(void)
  63:Core/Src/os.c **** {
 232              		.loc 1 63 1
 233              		.cfi_startproc
ARM GAS  C:\Users\jisu8\AppData\Local\Temp\ccUSo9Ur.s 			page 6


 234              		@ args = 0, pretend = 0, frame = 0
 235              		@ frame_needed = 1, uses_anonymous_args = 0
 236              		@ link register save eliminated.
 237 0000 80B4     		push	{r7}
 238              	.LCFI14:
 239              		.cfi_def_cfa_offset 4
 240              		.cfi_offset 7, -4
 241 0002 00AF     		add	r7, sp, #0
 242              	.LCFI15:
 243              		.cfi_def_cfa_register 7
  64:Core/Src/os.c **** 	Os_Var.Os_Counter.Os_100us_Counter++;
 244              		.loc 1 64 19
 245 0004 044B     		ldr	r3, .L10
 246 0006 1B68     		ldr	r3, [r3]
 247              		.loc 1 64 36
 248 0008 0133     		adds	r3, r3, #1
 249 000a 034A     		ldr	r2, .L10
 250 000c 1360     		str	r3, [r2]
  65:Core/Src/os.c **** }
 251              		.loc 1 65 1
 252 000e 00BF     		nop
 253 0010 BD46     		mov	sp, r7
 254              	.LCFI16:
 255              		.cfi_def_cfa_register 13
 256              		@ sp needed
 257 0012 80BC     		pop	{r7}
 258              	.LCFI17:
 259              		.cfi_restore 7
 260              		.cfi_def_cfa_offset 0
 261 0014 7047     		bx	lr
 262              	.L11:
 263 0016 00BF     		.align	2
 264              	.L10:
 265 0018 00000000 		.word	Os_Var
 266              		.cfi_endproc
 267              	.LFE70:
 269              		.section	.text.Os_Handler,"ax",%progbits
 270              		.align	1
 271              		.global	Os_Handler
 272              		.syntax unified
 273              		.thumb
 274              		.thumb_func
 276              	Os_Handler:
 277              	.LFB71:
  66:Core/Src/os.c **** 
  67:Core/Src/os.c **** void Os_Handler(void)
  68:Core/Src/os.c **** {
 278              		.loc 1 68 1
 279              		.cfi_startproc
 280              		@ args = 0, pretend = 0, frame = 8
 281              		@ frame_needed = 1, uses_anonymous_args = 0
 282 0000 80B5     		push	{r7, lr}
 283              	.LCFI18:
 284              		.cfi_def_cfa_offset 8
 285              		.cfi_offset 7, -8
 286              		.cfi_offset 14, -4
 287 0002 82B0     		sub	sp, sp, #8
ARM GAS  C:\Users\jisu8\AppData\Local\Temp\ccUSo9Ur.s 			page 7


 288              	.LCFI19:
 289              		.cfi_def_cfa_offset 16
 290 0004 00AF     		add	r7, sp, #0
 291              	.LCFI20:
 292              		.cfi_def_cfa_register 7
  69:Core/Src/os.c **** 	void(*fp)(void);
  70:Core/Src/os.c ****     if(Os_Var.Os_Task_Flag.Os_100ms_Flag == 1)
 293              		.loc 1 70 27
 294 0006 144B     		ldr	r3, .L16
 295 0008 93F85630 		ldrb	r3, [r3, #86]	@ zero_extendqisi2
 296              		.loc 1 70 7
 297 000c 012B     		cmp	r3, #1
 298 000e 14D1     		bne	.L13
  71:Core/Src/os.c **** 	{
  72:Core/Src/os.c **** 		fp = Os_100ms_Task;
 299              		.loc 1 72 6
 300 0010 124B     		ldr	r3, .L16+4
 301 0012 7B60     		str	r3, [r7, #4]
  73:Core/Src/os.c **** 		Os_Var.Os_Task_Add.Os_100ms_Address = fp;
 302              		.loc 1 73 39
 303 0014 104A     		ldr	r2, .L16
 304 0016 7B68     		ldr	r3, [r7, #4]
 305 0018 1366     		str	r3, [r2, #96]
  74:Core/Src/os.c **** 		Os_Var.Os_Task_Flag.Os_100ms_Flag = 0;
 306              		.loc 1 74 37
 307 001a 0F4B     		ldr	r3, .L16
 308 001c 0022     		movs	r2, #0
 309 001e 83F85620 		strb	r2, [r3, #86]
  75:Core/Src/os.c **** 		Os_Calc_Runtime_Start(OS_TASK_INDEX_100MS);
 310              		.loc 1 75 3
 311 0022 0320     		movs	r0, #3
 312 0024 FFF7FEFF 		bl	Os_Calc_Runtime_Start
  76:Core/Src/os.c **** 		(void)Os_100ms_Task();
 313              		.loc 1 76 3
 314 0028 FFF7FEFF 		bl	Os_100ms_Task
  77:Core/Src/os.c **** 		Os_Calc_Runtime_Stop(OS_TASK_INDEX_100MS);
 315              		.loc 1 77 3
 316 002c 0320     		movs	r0, #3
 317 002e FFF7FEFF 		bl	Os_Calc_Runtime_Stop
  78:Core/Src/os.c **** 		Os_Calc_Period(OS_TASK_INDEX_100MS);
 318              		.loc 1 78 3
 319 0032 0320     		movs	r0, #3
 320 0034 FFF7FEFF 		bl	Os_Calc_Period
  79:Core/Src/os.c **** 	}
  80:Core/Src/os.c **** 	else
  81:Core/Src/os.c **** 	{
  82:Core/Src/os.c **** 		Os_Calc_Runtime_Start(OS_TASK_INDEX_BG);
  83:Core/Src/os.c **** 		(void)Os_Background_Task();
  84:Core/Src/os.c **** 		Os_Calc_Runtime_Stop(OS_TASK_INDEX_BG);
  85:Core/Src/os.c **** 		Os_Calc_Period(OS_TASK_INDEX_BG);
  86:Core/Src/os.c **** 	}
  87:Core/Src/os.c **** 
  88:Core/Src/os.c ****     return;
 321              		.loc 1 88 5
 322 0038 0BE0     		b	.L12
 323              	.L13:
  82:Core/Src/os.c **** 		(void)Os_Background_Task();
ARM GAS  C:\Users\jisu8\AppData\Local\Temp\ccUSo9Ur.s 			page 8


 324              		.loc 1 82 3
 325 003a 0420     		movs	r0, #4
 326 003c FFF7FEFF 		bl	Os_Calc_Runtime_Start
  83:Core/Src/os.c **** 		Os_Calc_Runtime_Stop(OS_TASK_INDEX_BG);
 327              		.loc 1 83 3
 328 0040 FFF7FEFF 		bl	Os_Background_Task
  84:Core/Src/os.c **** 		Os_Calc_Period(OS_TASK_INDEX_BG);
 329              		.loc 1 84 3
 330 0044 0420     		movs	r0, #4
 331 0046 FFF7FEFF 		bl	Os_Calc_Runtime_Stop
  85:Core/Src/os.c **** 	}
 332              		.loc 1 85 3
 333 004a 0420     		movs	r0, #4
 334 004c FFF7FEFF 		bl	Os_Calc_Period
 335              		.loc 1 88 5
 336 0050 00BF     		nop
 337              	.L12:
  89:Core/Src/os.c **** }
 338              		.loc 1 89 1
 339 0052 0837     		adds	r7, r7, #8
 340              	.LCFI21:
 341              		.cfi_def_cfa_offset 8
 342 0054 BD46     		mov	sp, r7
 343              	.LCFI22:
 344              		.cfi_def_cfa_register 13
 345              		@ sp needed
 346 0056 80BD     		pop	{r7, pc}
 347              	.L17:
 348              		.align	2
 349              	.L16:
 350 0058 00000000 		.word	Os_Var
 351 005c 00000000 		.word	Os_100ms_Task
 352              		.cfi_endproc
 353              	.LFE71:
 355              		.section	.text.Os_Handler_1ms,"ax",%progbits
 356              		.align	1
 357              		.global	Os_Handler_1ms
 358              		.syntax unified
 359              		.thumb
 360              		.thumb_func
 362              	Os_Handler_1ms:
 363              	.LFB72:
  90:Core/Src/os.c **** 
  91:Core/Src/os.c **** void Os_Handler_1ms(void)
  92:Core/Src/os.c **** {
 364              		.loc 1 92 1
 365              		.cfi_startproc
 366              		@ args = 0, pretend = 0, frame = 8
 367              		@ frame_needed = 1, uses_anonymous_args = 0
 368 0000 80B5     		push	{r7, lr}
 369              	.LCFI23:
 370              		.cfi_def_cfa_offset 8
 371              		.cfi_offset 7, -8
 372              		.cfi_offset 14, -4
 373 0002 82B0     		sub	sp, sp, #8
 374              	.LCFI24:
 375              		.cfi_def_cfa_offset 16
ARM GAS  C:\Users\jisu8\AppData\Local\Temp\ccUSo9Ur.s 			page 9


 376 0004 00AF     		add	r7, sp, #0
 377              	.LCFI25:
 378              		.cfi_def_cfa_register 7
  93:Core/Src/os.c **** 	if(Os_Var.Os_Counter.Os_1ms_Counter % 1 == 0)
  94:Core/Src/os.c **** 	{
  95:Core/Src/os.c **** 		Os_Var.Os_Counter.Os_1ms_Counter++;
 379              		.loc 1 95 20
 380 0006 1D4B     		ldr	r3, .L22
 381 0008 5B68     		ldr	r3, [r3, #4]
 382              		.loc 1 95 35
 383 000a 0133     		adds	r3, r3, #1
 384 000c 1B4A     		ldr	r2, .L22
 385 000e 5360     		str	r3, [r2, #4]
  96:Core/Src/os.c **** 		Os_Var.Os_Task_Flag.Os_1ms_Flag = 1;
 386              		.loc 1 96 35
 387 0010 1A4B     		ldr	r3, .L22
 388 0012 0122     		movs	r2, #1
 389 0014 83F85420 		strb	r2, [r3, #84]
  97:Core/Src/os.c **** 	}
  98:Core/Src/os.c **** 
  99:Core/Src/os.c **** 	if(Os_Var.Os_Counter.Os_1ms_Counter % 100 == 0)
 390              		.loc 1 99 22
 391 0018 184B     		ldr	r3, .L22
 392 001a 5A68     		ldr	r2, [r3, #4]
 393              		.loc 1 99 38
 394 001c 184B     		ldr	r3, .L22+4
 395 001e A3FB0213 		umull	r1, r3, r3, r2
 396 0022 5B09     		lsrs	r3, r3, #5
 397 0024 6421     		movs	r1, #100
 398 0026 01FB03F3 		mul	r3, r1, r3
 399 002a D31A     		subs	r3, r2, r3
 400              		.loc 1 99 4
 401 002c 002B     		cmp	r3, #0
 402 002e 08D1     		bne	.L19
 100:Core/Src/os.c **** 	{
 101:Core/Src/os.c **** 		Os_Var.Os_Counter.Os_100ms_Counter++;
 403              		.loc 1 101 20
 404 0030 124B     		ldr	r3, .L22
 405 0032 DB68     		ldr	r3, [r3, #12]
 406              		.loc 1 101 37
 407 0034 0133     		adds	r3, r3, #1
 408 0036 114A     		ldr	r2, .L22
 409 0038 D360     		str	r3, [r2, #12]
 102:Core/Src/os.c **** 		Os_Var.Os_Task_Flag.Os_100ms_Flag = 1;
 410              		.loc 1 102 37
 411 003a 104B     		ldr	r3, .L22
 412 003c 0122     		movs	r2, #1
 413 003e 83F85620 		strb	r2, [r3, #86]
 414              	.L19:
 103:Core/Src/os.c **** 	}
 104:Core/Src/os.c **** 	void(*fp)(void);
 105:Core/Src/os.c **** 	if(Os_Var.Os_Task_Flag.Os_1ms_Flag == 1)
 415              		.loc 1 105 24
 416 0042 0E4B     		ldr	r3, .L22
 417 0044 93F85430 		ldrb	r3, [r3, #84]	@ zero_extendqisi2
 418              		.loc 1 105 4
 419 0048 012B     		cmp	r3, #1
ARM GAS  C:\Users\jisu8\AppData\Local\Temp\ccUSo9Ur.s 			page 10


 420 004a 13D1     		bne	.L21
 106:Core/Src/os.c **** 	{
 107:Core/Src/os.c **** 		fp = Os_1ms_Task;
 421              		.loc 1 107 6
 422 004c 0D4B     		ldr	r3, .L22+8
 423 004e 7B60     		str	r3, [r7, #4]
 108:Core/Src/os.c **** 		Os_Var.Os_Task_Add.Os_1ms_Address = fp;
 424              		.loc 1 108 37
 425 0050 0A4A     		ldr	r2, .L22
 426 0052 7B68     		ldr	r3, [r7, #4]
 427 0054 9365     		str	r3, [r2, #88]
 109:Core/Src/os.c **** 		Os_Var.Os_Task_Flag.Os_1ms_Flag = 0;
 428              		.loc 1 109 35
 429 0056 094B     		ldr	r3, .L22
 430 0058 0022     		movs	r2, #0
 431 005a 83F85420 		strb	r2, [r3, #84]
 110:Core/Src/os.c **** 		Os_Calc_Runtime_Start(OS_TASK_INDEX_1MS);
 432              		.loc 1 110 3
 433 005e 0120     		movs	r0, #1
 434 0060 FFF7FEFF 		bl	Os_Calc_Runtime_Start
 111:Core/Src/os.c **** 		(void)Os_1ms_Task();
 435              		.loc 1 111 3
 436 0064 FFF7FEFF 		bl	Os_1ms_Task
 112:Core/Src/os.c **** 		Os_Calc_Runtime_Stop(OS_TASK_INDEX_1MS);
 437              		.loc 1 112 3
 438 0068 0120     		movs	r0, #1
 439 006a FFF7FEFF 		bl	Os_Calc_Runtime_Stop
 113:Core/Src/os.c **** 		Os_Calc_Period(OS_TASK_INDEX_1MS);
 440              		.loc 1 113 3
 441 006e 0120     		movs	r0, #1
 442 0070 FFF7FEFF 		bl	Os_Calc_Period
 443              	.L21:
 114:Core/Src/os.c **** 	}
 115:Core/Src/os.c **** }
 444              		.loc 1 115 1
 445 0074 00BF     		nop
 446 0076 0837     		adds	r7, r7, #8
 447              	.LCFI26:
 448              		.cfi_def_cfa_offset 8
 449 0078 BD46     		mov	sp, r7
 450              	.LCFI27:
 451              		.cfi_def_cfa_register 13
 452              		@ sp needed
 453 007a 80BD     		pop	{r7, pc}
 454              	.L23:
 455              		.align	2
 456              	.L22:
 457 007c 00000000 		.word	Os_Var
 458 0080 1F85EB51 		.word	1374389535
 459 0084 00000000 		.word	Os_1ms_Task
 460              		.cfi_endproc
 461              	.LFE72:
 463              		.section	.text.Os_Handler_10ms,"ax",%progbits
 464              		.align	1
 465              		.global	Os_Handler_10ms
 466              		.syntax unified
 467              		.thumb
ARM GAS  C:\Users\jisu8\AppData\Local\Temp\ccUSo9Ur.s 			page 11


 468              		.thumb_func
 470              	Os_Handler_10ms:
 471              	.LFB73:
 116:Core/Src/os.c **** 
 117:Core/Src/os.c **** void Os_Handler_10ms(void)
 118:Core/Src/os.c **** {
 472              		.loc 1 118 1
 473              		.cfi_startproc
 474              		@ args = 0, pretend = 0, frame = 8
 475              		@ frame_needed = 1, uses_anonymous_args = 0
 476 0000 80B5     		push	{r7, lr}
 477              	.LCFI28:
 478              		.cfi_def_cfa_offset 8
 479              		.cfi_offset 7, -8
 480              		.cfi_offset 14, -4
 481 0002 82B0     		sub	sp, sp, #8
 482              	.LCFI29:
 483              		.cfi_def_cfa_offset 16
 484 0004 00AF     		add	r7, sp, #0
 485              	.LCFI30:
 486              		.cfi_def_cfa_register 7
 119:Core/Src/os.c **** 	Os_Var.Os_Counter.Os_10ms_Counter++;
 487              		.loc 1 119 19
 488 0006 134B     		ldr	r3, .L27
 489 0008 9B68     		ldr	r3, [r3, #8]
 490              		.loc 1 119 35
 491 000a 0133     		adds	r3, r3, #1
 492 000c 114A     		ldr	r2, .L27
 493 000e 9360     		str	r3, [r2, #8]
 120:Core/Src/os.c **** 	Os_Var.Os_Task_Flag.Os_10ms_Flag = 1;
 494              		.loc 1 120 35
 495 0010 104B     		ldr	r3, .L27
 496 0012 0122     		movs	r2, #1
 497 0014 83F85520 		strb	r2, [r3, #85]
 121:Core/Src/os.c **** 	void(*fp)(void);
 122:Core/Src/os.c **** 	if(Os_Var.Os_Task_Flag.Os_10ms_Flag == 1)
 498              		.loc 1 122 24
 499 0018 0E4B     		ldr	r3, .L27
 500 001a 93F85530 		ldrb	r3, [r3, #85]	@ zero_extendqisi2
 501              		.loc 1 122 4
 502 001e 012B     		cmp	r3, #1
 503 0020 13D1     		bne	.L26
 123:Core/Src/os.c **** 	{
 124:Core/Src/os.c **** 		fp = Os_10ms_Task;
 504              		.loc 1 124 6
 505 0022 0D4B     		ldr	r3, .L27+4
 506 0024 7B60     		str	r3, [r7, #4]
 125:Core/Src/os.c **** 		Os_Var.Os_Task_Add.Os_10ms_Address = fp;
 507              		.loc 1 125 38
 508 0026 0B4A     		ldr	r2, .L27
 509 0028 7B68     		ldr	r3, [r7, #4]
 510 002a D365     		str	r3, [r2, #92]
 126:Core/Src/os.c **** 		Os_Var.Os_Task_Flag.Os_10ms_Flag = 0;
 511              		.loc 1 126 36
 512 002c 094B     		ldr	r3, .L27
 513 002e 0022     		movs	r2, #0
 514 0030 83F85520 		strb	r2, [r3, #85]
ARM GAS  C:\Users\jisu8\AppData\Local\Temp\ccUSo9Ur.s 			page 12


 127:Core/Src/os.c **** 		Os_Calc_Runtime_Start(OS_TASK_INDEX_10MS);
 515              		.loc 1 127 3
 516 0034 0220     		movs	r0, #2
 517 0036 FFF7FEFF 		bl	Os_Calc_Runtime_Start
 128:Core/Src/os.c **** 		(void)Os_10ms_Task();
 518              		.loc 1 128 3
 519 003a FFF7FEFF 		bl	Os_10ms_Task
 129:Core/Src/os.c **** 		Os_Calc_Runtime_Stop(OS_TASK_INDEX_10MS);
 520              		.loc 1 129 3
 521 003e 0220     		movs	r0, #2
 522 0040 FFF7FEFF 		bl	Os_Calc_Runtime_Stop
 130:Core/Src/os.c **** 		Os_Calc_Period(OS_TASK_INDEX_10MS);
 523              		.loc 1 130 3
 524 0044 0220     		movs	r0, #2
 525 0046 FFF7FEFF 		bl	Os_Calc_Period
 526              	.L26:
 131:Core/Src/os.c **** 	}
 132:Core/Src/os.c **** }
 527              		.loc 1 132 1
 528 004a 00BF     		nop
 529 004c 0837     		adds	r7, r7, #8
 530              	.LCFI31:
 531              		.cfi_def_cfa_offset 8
 532 004e BD46     		mov	sp, r7
 533              	.LCFI32:
 534              		.cfi_def_cfa_register 13
 535              		@ sp needed
 536 0050 80BD     		pop	{r7, pc}
 537              	.L28:
 538 0052 00BF     		.align	2
 539              	.L27:
 540 0054 00000000 		.word	Os_Var
 541 0058 00000000 		.word	Os_10ms_Task
 542              		.cfi_endproc
 543              	.LFE73:
 545              		.section	.text.Os_Get_Tick_100us,"ax",%progbits
 546              		.align	1
 547              		.global	Os_Get_Tick_100us
 548              		.syntax unified
 549              		.thumb
 550              		.thumb_func
 552              	Os_Get_Tick_100us:
 553              	.LFB74:
 133:Core/Src/os.c **** 
 134:Core/Src/os.c **** uint32 Os_Get_Tick_100us(void)
 135:Core/Src/os.c **** {
 554              		.loc 1 135 1
 555              		.cfi_startproc
 556              		@ args = 0, pretend = 0, frame = 0
 557              		@ frame_needed = 1, uses_anonymous_args = 0
 558              		@ link register save eliminated.
 559 0000 80B4     		push	{r7}
 560              	.LCFI33:
 561              		.cfi_def_cfa_offset 4
 562              		.cfi_offset 7, -4
 563 0002 00AF     		add	r7, sp, #0
 564              	.LCFI34:
ARM GAS  C:\Users\jisu8\AppData\Local\Temp\ccUSo9Ur.s 			page 13


 565              		.cfi_def_cfa_register 7
 136:Core/Src/os.c **** 	return Os_Var.Os_Counter.Os_100us_Counter;
 566              		.loc 1 136 26
 567 0004 024B     		ldr	r3, .L31
 568 0006 1B68     		ldr	r3, [r3]
 137:Core/Src/os.c **** }
 569              		.loc 1 137 1
 570 0008 1846     		mov	r0, r3
 571 000a BD46     		mov	sp, r7
 572              	.LCFI35:
 573              		.cfi_def_cfa_register 13
 574              		@ sp needed
 575 000c 80BC     		pop	{r7}
 576              	.LCFI36:
 577              		.cfi_restore 7
 578              		.cfi_def_cfa_offset 0
 579 000e 7047     		bx	lr
 580              	.L32:
 581              		.align	2
 582              	.L31:
 583 0010 00000000 		.word	Os_Var
 584              		.cfi_endproc
 585              	.LFE74:
 587              		.section	.text.Os_Calc_Period,"ax",%progbits
 588              		.align	1
 589              		.syntax unified
 590              		.thumb
 591              		.thumb_func
 593              	Os_Calc_Period:
 594              	.LFB75:
 138:Core/Src/os.c **** 
 139:Core/Src/os.c **** static void Os_Calc_Period(uint8 idx)
 140:Core/Src/os.c **** {
 595              		.loc 1 140 1
 596              		.cfi_startproc
 597              		@ args = 0, pretend = 0, frame = 24
 598              		@ frame_needed = 1, uses_anonymous_args = 0
 599 0000 80B5     		push	{r7, lr}
 600              	.LCFI37:
 601              		.cfi_def_cfa_offset 8
 602              		.cfi_offset 7, -8
 603              		.cfi_offset 14, -4
 604 0002 86B0     		sub	sp, sp, #24
 605              	.LCFI38:
 606              		.cfi_def_cfa_offset 32
 607 0004 00AF     		add	r7, sp, #0
 608              	.LCFI39:
 609              		.cfi_def_cfa_register 7
 610 0006 0346     		mov	r3, r0
 611 0008 FB71     		strb	r3, [r7, #7]
 141:Core/Src/os.c **** 	uint32 OS_TimeLoc=0;
 612              		.loc 1 141 9
 613 000a 0023     		movs	r3, #0
 614 000c 3B61     		str	r3, [r7, #16]
 142:Core/Src/os.c **** 	uint32 OS_TimeOldLoc=0;
 615              		.loc 1 142 9
 616 000e 0023     		movs	r3, #0
ARM GAS  C:\Users\jisu8\AppData\Local\Temp\ccUSo9Ur.s 			page 14


 617 0010 7B61     		str	r3, [r7, #20]
 143:Core/Src/os.c **** 	uint32 Os_TimeDiffLoc=0;
 618              		.loc 1 143 9
 619 0012 0023     		movs	r3, #0
 620 0014 FB60     		str	r3, [r7, #12]
 144:Core/Src/os.c **** 
 145:Core/Src/os.c **** 	OS_TimeLoc = Os_Get_Tick_100us();
 621              		.loc 1 145 15
 622 0016 FFF7FEFF 		bl	Os_Get_Tick_100us
 623 001a 3861     		str	r0, [r7, #16]
 146:Core/Src/os.c **** 
 147:Core/Src/os.c **** 	switch(idx)
 624              		.loc 1 147 2
 625 001c FB79     		ldrb	r3, [r7, #7]	@ zero_extendqisi2
 626 001e 032B     		cmp	r3, #3
 627 0020 0ED0     		beq	.L34
 628 0022 032B     		cmp	r3, #3
 629 0024 10DC     		bgt	.L35
 630 0026 012B     		cmp	r3, #1
 631 0028 02D0     		beq	.L36
 632 002a 022B     		cmp	r3, #2
 633 002c 04D0     		beq	.L37
 634 002e 0BE0     		b	.L35
 635              	.L36:
 148:Core/Src/os.c **** 	{
 149:Core/Src/os.c **** 		case OS_TASK_INDEX_1MS : 
 150:Core/Src/os.c **** 			OS_TimeOldLoc = Os_Var.Os_Tick_Period.Os_1ms_Tick_Period;
 636              		.loc 1 150 18
 637 0030 1A4B     		ldr	r3, .L44
 638 0032 9B6A     		ldr	r3, [r3, #40]
 639 0034 7B61     		str	r3, [r7, #20]
 151:Core/Src/os.c **** 		break;
 640              		.loc 1 151 3
 641 0036 07E0     		b	.L35
 642              	.L37:
 152:Core/Src/os.c **** 		case OS_TASK_INDEX_10MS : 
 153:Core/Src/os.c **** 			OS_TimeOldLoc = Os_Var.Os_Tick_Period.Os_10ms_Tick_Period;
 643              		.loc 1 153 18
 644 0038 184B     		ldr	r3, .L44
 645 003a DB6A     		ldr	r3, [r3, #44]
 646 003c 7B61     		str	r3, [r7, #20]
 154:Core/Src/os.c **** 		break;
 647              		.loc 1 154 3
 648 003e 03E0     		b	.L35
 649              	.L34:
 155:Core/Src/os.c **** 		case OS_TASK_INDEX_100MS : 
 156:Core/Src/os.c **** 			OS_TimeOldLoc = Os_Var.Os_Tick_Period.Os_100ms_Tick_Period;
 650              		.loc 1 156 18
 651 0040 164B     		ldr	r3, .L44
 652 0042 1B6B     		ldr	r3, [r3, #48]
 653 0044 7B61     		str	r3, [r7, #20]
 157:Core/Src/os.c **** 		break;
 654              		.loc 1 157 3
 655 0046 00BF     		nop
 656              	.L35:
 158:Core/Src/os.c **** 	}
 159:Core/Src/os.c **** 
ARM GAS  C:\Users\jisu8\AppData\Local\Temp\ccUSo9Ur.s 			page 15


 160:Core/Src/os.c **** 	Os_TimeDiffLoc = OS_TimeLoc - OS_TimeOldLoc;
 657              		.loc 1 160 17
 658 0048 3A69     		ldr	r2, [r7, #16]
 659 004a 7B69     		ldr	r3, [r7, #20]
 660 004c D31A     		subs	r3, r2, r3
 661 004e FB60     		str	r3, [r7, #12]
 161:Core/Src/os.c **** 	OS_TimeOldLoc = OS_TimeLoc;
 662              		.loc 1 161 16
 663 0050 3B69     		ldr	r3, [r7, #16]
 664 0052 7B61     		str	r3, [r7, #20]
 162:Core/Src/os.c **** 	
 163:Core/Src/os.c **** 	switch(idx)
 665              		.loc 1 163 2
 666 0054 FB79     		ldrb	r3, [r7, #7]	@ zero_extendqisi2
 667 0056 032B     		cmp	r3, #3
 668 0058 14D0     		beq	.L38
 669 005a 032B     		cmp	r3, #3
 670 005c 1ADC     		bgt	.L43
 671 005e 012B     		cmp	r3, #1
 672 0060 02D0     		beq	.L40
 673 0062 022B     		cmp	r3, #2
 674 0064 07D0     		beq	.L41
 164:Core/Src/os.c **** 	{
 165:Core/Src/os.c **** 		case OS_TASK_INDEX_1MS : 
 166:Core/Src/os.c **** 			Os_Var.Os_Period.Os_1ms_Period = Os_TimeDiffLoc;
 167:Core/Src/os.c **** 			Os_Var.Os_Tick_Period.Os_1ms_Tick_Period = OS_TimeOldLoc;
 168:Core/Src/os.c **** 		break;
 169:Core/Src/os.c **** 		case OS_TASK_INDEX_10MS : 
 170:Core/Src/os.c **** 			Os_Var.Os_Period.Os_10ms_Period = Os_TimeDiffLoc;
 171:Core/Src/os.c **** 			Os_Var.Os_Tick_Period.Os_10ms_Tick_Period = OS_TimeOldLoc;
 172:Core/Src/os.c **** 		break;
 173:Core/Src/os.c **** 		case OS_TASK_INDEX_100MS : 
 174:Core/Src/os.c **** 			Os_Var.Os_Period.Os_100ms_Period = Os_TimeDiffLoc;
 175:Core/Src/os.c **** 			Os_Var.Os_Tick_Period.Os_100ms_Tick_Period = OS_TimeOldLoc;
 176:Core/Src/os.c **** 		break;
 177:Core/Src/os.c **** 	}
 178:Core/Src/os.c **** 	
 179:Core/Src/os.c **** 	return;
 675              		.loc 1 179 2
 676 0066 15E0     		b	.L43
 677              	.L40:
 166:Core/Src/os.c **** 			Os_Var.Os_Tick_Period.Os_1ms_Tick_Period = OS_TimeOldLoc;
 678              		.loc 1 166 35
 679 0068 0C4A     		ldr	r2, .L44
 680 006a FB68     		ldr	r3, [r7, #12]
 681 006c 1364     		str	r3, [r2, #64]
 167:Core/Src/os.c **** 		break;
 682              		.loc 1 167 45
 683 006e 0B4A     		ldr	r2, .L44
 684 0070 7B69     		ldr	r3, [r7, #20]
 685 0072 9362     		str	r3, [r2, #40]
 168:Core/Src/os.c **** 		case OS_TASK_INDEX_10MS : 
 686              		.loc 1 168 3
 687 0074 0DE0     		b	.L39
 688              	.L41:
 170:Core/Src/os.c **** 			Os_Var.Os_Tick_Period.Os_10ms_Tick_Period = OS_TimeOldLoc;
 689              		.loc 1 170 36
ARM GAS  C:\Users\jisu8\AppData\Local\Temp\ccUSo9Ur.s 			page 16


 690 0076 094A     		ldr	r2, .L44
 691 0078 FB68     		ldr	r3, [r7, #12]
 692 007a 5364     		str	r3, [r2, #68]
 171:Core/Src/os.c **** 		break;
 693              		.loc 1 171 46
 694 007c 074A     		ldr	r2, .L44
 695 007e 7B69     		ldr	r3, [r7, #20]
 696 0080 D362     		str	r3, [r2, #44]
 172:Core/Src/os.c **** 		case OS_TASK_INDEX_100MS : 
 697              		.loc 1 172 3
 698 0082 06E0     		b	.L39
 699              	.L38:
 174:Core/Src/os.c **** 			Os_Var.Os_Tick_Period.Os_100ms_Tick_Period = OS_TimeOldLoc;
 700              		.loc 1 174 37
 701 0084 054A     		ldr	r2, .L44
 702 0086 FB68     		ldr	r3, [r7, #12]
 703 0088 9364     		str	r3, [r2, #72]
 175:Core/Src/os.c **** 		break;
 704              		.loc 1 175 47
 705 008a 044A     		ldr	r2, .L44
 706 008c 7B69     		ldr	r3, [r7, #20]
 707 008e 1363     		str	r3, [r2, #48]
 176:Core/Src/os.c **** 	}
 708              		.loc 1 176 3
 709 0090 00BF     		nop
 710              	.L39:
 711              		.loc 1 179 2
 712 0092 00BF     		nop
 713              	.L43:
 714 0094 00BF     		nop
 180:Core/Src/os.c **** }
 715              		.loc 1 180 1
 716 0096 1837     		adds	r7, r7, #24
 717              	.LCFI40:
 718              		.cfi_def_cfa_offset 8
 719 0098 BD46     		mov	sp, r7
 720              	.LCFI41:
 721              		.cfi_def_cfa_register 13
 722              		@ sp needed
 723 009a 80BD     		pop	{r7, pc}
 724              	.L45:
 725              		.align	2
 726              	.L44:
 727 009c 00000000 		.word	Os_Var
 728              		.cfi_endproc
 729              	.LFE75:
 731              		.section	.text.Os_Calc_Runtime_Start,"ax",%progbits
 732              		.align	1
 733              		.syntax unified
 734              		.thumb
 735              		.thumb_func
 737              	Os_Calc_Runtime_Start:
 738              	.LFB76:
 181:Core/Src/os.c **** 
 182:Core/Src/os.c **** static void Os_Calc_Runtime_Start(uint8 idx)
 183:Core/Src/os.c **** {
 739              		.loc 1 183 1
ARM GAS  C:\Users\jisu8\AppData\Local\Temp\ccUSo9Ur.s 			page 17


 740              		.cfi_startproc
 741              		@ args = 0, pretend = 0, frame = 16
 742              		@ frame_needed = 1, uses_anonymous_args = 0
 743 0000 80B5     		push	{r7, lr}
 744              	.LCFI42:
 745              		.cfi_def_cfa_offset 8
 746              		.cfi_offset 7, -8
 747              		.cfi_offset 14, -4
 748 0002 84B0     		sub	sp, sp, #16
 749              	.LCFI43:
 750              		.cfi_def_cfa_offset 24
 751 0004 00AF     		add	r7, sp, #0
 752              	.LCFI44:
 753              		.cfi_def_cfa_register 7
 754 0006 0346     		mov	r3, r0
 755 0008 FB71     		strb	r3, [r7, #7]
 184:Core/Src/os.c **** 	uint32 OS_TimeLoc=0;
 756              		.loc 1 184 9
 757 000a 0023     		movs	r3, #0
 758 000c FB60     		str	r3, [r7, #12]
 185:Core/Src/os.c **** 
 186:Core/Src/os.c **** 	OS_TimeLoc = Os_Get_Tick_100us();
 759              		.loc 1 186 15
 760 000e FFF7FEFF 		bl	Os_Get_Tick_100us
 761 0012 F860     		str	r0, [r7, #12]
 187:Core/Src/os.c **** 
 188:Core/Src/os.c **** 	switch(idx)
 762              		.loc 1 188 2
 763 0014 FB79     		ldrb	r3, [r7, #7]	@ zero_extendqisi2
 764 0016 032B     		cmp	r3, #3
 765 0018 0ED0     		beq	.L47
 766 001a 032B     		cmp	r3, #3
 767 001c 11DC     		bgt	.L52
 768 001e 012B     		cmp	r3, #1
 769 0020 02D0     		beq	.L49
 770 0022 022B     		cmp	r3, #2
 771 0024 04D0     		beq	.L50
 189:Core/Src/os.c **** 	{
 190:Core/Src/os.c **** 		case OS_TASK_INDEX_1MS : 
 191:Core/Src/os.c **** 			Os_Var.Os_Tick_Runtime.Os_1ms_Tick_Runtime_Start = OS_TimeLoc;
 192:Core/Src/os.c **** 		break;
 193:Core/Src/os.c **** 		case OS_TASK_INDEX_10MS : 
 194:Core/Src/os.c **** 			Os_Var.Os_Tick_Runtime.Os_10ms_Tick_Runtime_Start = OS_TimeLoc;
 195:Core/Src/os.c **** 		break;
 196:Core/Src/os.c **** 		case OS_TASK_INDEX_100MS : 
 197:Core/Src/os.c **** 			Os_Var.Os_Tick_Runtime.Os_100ms_Tick_Runtime_Start = OS_TimeLoc;
 198:Core/Src/os.c **** 		break;
 199:Core/Src/os.c **** 	}
 200:Core/Src/os.c **** 
 201:Core/Src/os.c **** 	return;
 772              		.loc 1 201 2
 773 0026 0CE0     		b	.L52
 774              	.L49:
 191:Core/Src/os.c **** 		break;
 775              		.loc 1 191 53
 776 0028 084A     		ldr	r2, .L53
 777 002a FB68     		ldr	r3, [r7, #12]
ARM GAS  C:\Users\jisu8\AppData\Local\Temp\ccUSo9Ur.s 			page 18


 778 002c 1361     		str	r3, [r2, #16]
 192:Core/Src/os.c **** 		case OS_TASK_INDEX_10MS : 
 779              		.loc 1 192 3
 780 002e 07E0     		b	.L48
 781              	.L50:
 194:Core/Src/os.c **** 		break;
 782              		.loc 1 194 54
 783 0030 064A     		ldr	r2, .L53
 784 0032 FB68     		ldr	r3, [r7, #12]
 785 0034 9361     		str	r3, [r2, #24]
 195:Core/Src/os.c **** 		case OS_TASK_INDEX_100MS : 
 786              		.loc 1 195 3
 787 0036 03E0     		b	.L48
 788              	.L47:
 197:Core/Src/os.c **** 		break;
 789              		.loc 1 197 55
 790 0038 044A     		ldr	r2, .L53
 791 003a FB68     		ldr	r3, [r7, #12]
 792 003c 1362     		str	r3, [r2, #32]
 198:Core/Src/os.c **** 	}
 793              		.loc 1 198 3
 794 003e 00BF     		nop
 795              	.L48:
 796              		.loc 1 201 2
 797 0040 00BF     		nop
 798              	.L52:
 799 0042 00BF     		nop
 202:Core/Src/os.c **** }
 800              		.loc 1 202 1
 801 0044 1037     		adds	r7, r7, #16
 802              	.LCFI45:
 803              		.cfi_def_cfa_offset 8
 804 0046 BD46     		mov	sp, r7
 805              	.LCFI46:
 806              		.cfi_def_cfa_register 13
 807              		@ sp needed
 808 0048 80BD     		pop	{r7, pc}
 809              	.L54:
 810 004a 00BF     		.align	2
 811              	.L53:
 812 004c 00000000 		.word	Os_Var
 813              		.cfi_endproc
 814              	.LFE76:
 816              		.section	.text.Os_Calc_Runtime_Stop,"ax",%progbits
 817              		.align	1
 818              		.syntax unified
 819              		.thumb
 820              		.thumb_func
 822              	Os_Calc_Runtime_Stop:
 823              	.LFB77:
 203:Core/Src/os.c **** 
 204:Core/Src/os.c **** static void Os_Calc_Runtime_Stop(uint8 idx)
 205:Core/Src/os.c **** {
 824              		.loc 1 205 1
 825              		.cfi_startproc
 826              		@ args = 0, pretend = 0, frame = 24
 827              		@ frame_needed = 1, uses_anonymous_args = 0
ARM GAS  C:\Users\jisu8\AppData\Local\Temp\ccUSo9Ur.s 			page 19


 828 0000 80B5     		push	{r7, lr}
 829              	.LCFI47:
 830              		.cfi_def_cfa_offset 8
 831              		.cfi_offset 7, -8
 832              		.cfi_offset 14, -4
 833 0002 86B0     		sub	sp, sp, #24
 834              	.LCFI48:
 835              		.cfi_def_cfa_offset 32
 836 0004 00AF     		add	r7, sp, #0
 837              	.LCFI49:
 838              		.cfi_def_cfa_register 7
 839 0006 0346     		mov	r3, r0
 840 0008 FB71     		strb	r3, [r7, #7]
 206:Core/Src/os.c **** 	uint32 OS_TimeLoc=0;
 841              		.loc 1 206 9
 842 000a 0023     		movs	r3, #0
 843 000c 3B61     		str	r3, [r7, #16]
 207:Core/Src/os.c **** 	uint32 OS_TimeOldLoc=0;
 844              		.loc 1 207 9
 845 000e 0023     		movs	r3, #0
 846 0010 7B61     		str	r3, [r7, #20]
 208:Core/Src/os.c **** 	uint32 Os_TimeDiffLoc=0;
 847              		.loc 1 208 9
 848 0012 0023     		movs	r3, #0
 849 0014 FB60     		str	r3, [r7, #12]
 209:Core/Src/os.c **** 
 210:Core/Src/os.c **** 	OS_TimeLoc = Os_Get_Tick_100us();
 850              		.loc 1 210 15
 851 0016 FFF7FEFF 		bl	Os_Get_Tick_100us
 852 001a 3861     		str	r0, [r7, #16]
 211:Core/Src/os.c **** 
 212:Core/Src/os.c **** 	switch(idx)
 853              		.loc 1 212 2
 854 001c FB79     		ldrb	r3, [r7, #7]	@ zero_extendqisi2
 855 001e 032B     		cmp	r3, #3
 856 0020 0ED0     		beq	.L56
 857 0022 032B     		cmp	r3, #3
 858 0024 10DC     		bgt	.L57
 859 0026 012B     		cmp	r3, #1
 860 0028 02D0     		beq	.L58
 861 002a 022B     		cmp	r3, #2
 862 002c 04D0     		beq	.L59
 863 002e 0BE0     		b	.L57
 864              	.L58:
 213:Core/Src/os.c **** 	{
 214:Core/Src/os.c **** 		case OS_TASK_INDEX_1MS : 
 215:Core/Src/os.c **** 			OS_TimeOldLoc = Os_Var.Os_Tick_Runtime.Os_1ms_Tick_Runtime_Start;
 865              		.loc 1 215 18
 866 0030 194B     		ldr	r3, .L66
 867 0032 1B69     		ldr	r3, [r3, #16]
 868 0034 7B61     		str	r3, [r7, #20]
 216:Core/Src/os.c **** 		break;
 869              		.loc 1 216 3
 870 0036 07E0     		b	.L57
 871              	.L59:
 217:Core/Src/os.c **** 		case OS_TASK_INDEX_10MS : 
 218:Core/Src/os.c **** 			OS_TimeOldLoc = Os_Var.Os_Tick_Runtime.Os_10ms_Tick_Runtime_Start;
ARM GAS  C:\Users\jisu8\AppData\Local\Temp\ccUSo9Ur.s 			page 20


 872              		.loc 1 218 18
 873 0038 174B     		ldr	r3, .L66
 874 003a 9B69     		ldr	r3, [r3, #24]
 875 003c 7B61     		str	r3, [r7, #20]
 219:Core/Src/os.c **** 		break;
 876              		.loc 1 219 3
 877 003e 03E0     		b	.L57
 878              	.L56:
 220:Core/Src/os.c **** 		case OS_TASK_INDEX_100MS : 
 221:Core/Src/os.c **** 			OS_TimeOldLoc = Os_Var.Os_Tick_Runtime.Os_100ms_Tick_Runtime_Start;
 879              		.loc 1 221 18
 880 0040 154B     		ldr	r3, .L66
 881 0042 1B6A     		ldr	r3, [r3, #32]
 882 0044 7B61     		str	r3, [r7, #20]
 222:Core/Src/os.c **** 		break;
 883              		.loc 1 222 3
 884 0046 00BF     		nop
 885              	.L57:
 223:Core/Src/os.c **** 	}
 224:Core/Src/os.c **** 
 225:Core/Src/os.c **** 	Os_TimeDiffLoc = OS_TimeLoc - OS_TimeOldLoc;
 886              		.loc 1 225 17
 887 0048 3A69     		ldr	r2, [r7, #16]
 888 004a 7B69     		ldr	r3, [r7, #20]
 889 004c D31A     		subs	r3, r2, r3
 890 004e FB60     		str	r3, [r7, #12]
 226:Core/Src/os.c **** 
 227:Core/Src/os.c **** 	switch(idx)
 891              		.loc 1 227 2
 892 0050 FB79     		ldrb	r3, [r7, #7]	@ zero_extendqisi2
 893 0052 032B     		cmp	r3, #3
 894 0054 14D0     		beq	.L60
 895 0056 032B     		cmp	r3, #3
 896 0058 1ADC     		bgt	.L65
 897 005a 012B     		cmp	r3, #1
 898 005c 02D0     		beq	.L62
 899 005e 022B     		cmp	r3, #2
 900 0060 07D0     		beq	.L63
 228:Core/Src/os.c **** 	{
 229:Core/Src/os.c **** 		case OS_TASK_INDEX_1MS : 
 230:Core/Src/os.c **** 			Os_Var.Os_Runtime.Os_1ms_Runtime = Os_TimeDiffLoc;
 231:Core/Src/os.c **** 			Os_Var.Os_Tick_Runtime.Os_1ms_Tick_Runtime_Stop = OS_TimeLoc;
 232:Core/Src/os.c **** 		break;
 233:Core/Src/os.c **** 		case OS_TASK_INDEX_10MS : 
 234:Core/Src/os.c **** 			Os_Var.Os_Runtime.Os_10ms_Runtime = Os_TimeDiffLoc;
 235:Core/Src/os.c **** 			Os_Var.Os_Tick_Runtime.Os_10ms_Tick_Runtime_Stop = OS_TimeLoc;
 236:Core/Src/os.c **** 		break;
 237:Core/Src/os.c **** 		case OS_TASK_INDEX_100MS : 
 238:Core/Src/os.c **** 			Os_Var.Os_Runtime.Os_100ms_Runtime = Os_TimeDiffLoc;
 239:Core/Src/os.c **** 			Os_Var.Os_Tick_Runtime.Os_100ms_Tick_Runtime_Stop = OS_TimeLoc;
 240:Core/Src/os.c **** 		break;
 241:Core/Src/os.c **** 	}
 242:Core/Src/os.c **** 
 243:Core/Src/os.c **** 	return;
 901              		.loc 1 243 2
 902 0062 15E0     		b	.L65
 903              	.L62:
ARM GAS  C:\Users\jisu8\AppData\Local\Temp\ccUSo9Ur.s 			page 21


 230:Core/Src/os.c **** 			Os_Var.Os_Tick_Runtime.Os_1ms_Tick_Runtime_Stop = OS_TimeLoc;
 904              		.loc 1 230 37
 905 0064 0C4A     		ldr	r2, .L66
 906 0066 FB68     		ldr	r3, [r7, #12]
 907 0068 5363     		str	r3, [r2, #52]
 231:Core/Src/os.c **** 		break;
 908              		.loc 1 231 52
 909 006a 0B4A     		ldr	r2, .L66
 910 006c 3B69     		ldr	r3, [r7, #16]
 911 006e 5361     		str	r3, [r2, #20]
 232:Core/Src/os.c **** 		case OS_TASK_INDEX_10MS : 
 912              		.loc 1 232 3
 913 0070 0DE0     		b	.L61
 914              	.L63:
 234:Core/Src/os.c **** 			Os_Var.Os_Tick_Runtime.Os_10ms_Tick_Runtime_Stop = OS_TimeLoc;
 915              		.loc 1 234 38
 916 0072 094A     		ldr	r2, .L66
 917 0074 FB68     		ldr	r3, [r7, #12]
 918 0076 9363     		str	r3, [r2, #56]
 235:Core/Src/os.c **** 		break;
 919              		.loc 1 235 53
 920 0078 074A     		ldr	r2, .L66
 921 007a 3B69     		ldr	r3, [r7, #16]
 922 007c D361     		str	r3, [r2, #28]
 236:Core/Src/os.c **** 		case OS_TASK_INDEX_100MS : 
 923              		.loc 1 236 3
 924 007e 06E0     		b	.L61
 925              	.L60:
 238:Core/Src/os.c **** 			Os_Var.Os_Tick_Runtime.Os_100ms_Tick_Runtime_Stop = OS_TimeLoc;
 926              		.loc 1 238 39
 927 0080 054A     		ldr	r2, .L66
 928 0082 FB68     		ldr	r3, [r7, #12]
 929 0084 D363     		str	r3, [r2, #60]
 239:Core/Src/os.c **** 		break;
 930              		.loc 1 239 54
 931 0086 044A     		ldr	r2, .L66
 932 0088 3B69     		ldr	r3, [r7, #16]
 933 008a 5362     		str	r3, [r2, #36]
 240:Core/Src/os.c **** 	}
 934              		.loc 1 240 3
 935 008c 00BF     		nop
 936              	.L61:
 937              		.loc 1 243 2
 938 008e 00BF     		nop
 939              	.L65:
 940 0090 00BF     		nop
 244:Core/Src/os.c **** }...
 941              		.loc 1 244 1
 942 0092 1837     		adds	r7, r7, #24
 943              	.LCFI50:
 944              		.cfi_def_cfa_offset 8
 945 0094 BD46     		mov	sp, r7
 946              	.LCFI51:
 947              		.cfi_def_cfa_register 13
 948              		@ sp needed
 949 0096 80BD     		pop	{r7, pc}
 950              	.L67:
ARM GAS  C:\Users\jisu8\AppData\Local\Temp\ccUSo9Ur.s 			page 22


 951              		.align	2
 952              	.L66:
 953 0098 00000000 		.word	Os_Var
 954              		.cfi_endproc
 955              	.LFE77:
 957              		.text
 958              	.Letext0:
 959              		.file 2 "Core/Inc/vardef.h"
 960              		.file 3 "Core/Inc/os.h"
 961              		.file 4 "Core/Inc/switch.h"
ARM GAS  C:\Users\jisu8\AppData\Local\Temp\ccUSo9Ur.s 			page 23

