ARM GAS  C:\Users\jisu8\AppData\Local\Temp\ccEFlPfe.s 			page 1


   1              		.cpu cortex-m3
   2              		.arch armv7-m
   3              		.fpu softvfp
   4              		.eabi_attribute 20, 1
   5              		.eabi_attribute 21, 1
   6              		.eabi_attribute 23, 3
   7              		.eabi_attribute 24, 1
   8              		.eabi_attribute 25, 1
   9              		.eabi_attribute 26, 1
  10              		.eabi_attribute 30, 6
  11              		.eabi_attribute 34, 1
  12              		.eabi_attribute 18, 4
  13              		.file	"pwm.c"
  14              		.text
  15              	.Ltext0:
  16              		.cfi_sections	.debug_frame
  17              		.global	Pwm_Duty_Peltier
  18              		.section	.bss.Pwm_Duty_Peltier,"aw",%nobits
  19              		.align	1
  22              	Pwm_Duty_Peltier:
  23 0000 0000     		.space	2
  24              		.global	Pwm_Duty_Heater
  25              		.section	.bss.Pwm_Duty_Heater,"aw",%nobits
  26              		.align	1
  29              	Pwm_Duty_Heater:
  30 0000 0000     		.space	2
  31              		.global	Pwm_Duty_Servo
  32              		.section	.bss.Pwm_Duty_Servo,"aw",%nobits
  33              		.align	1
  36              	Pwm_Duty_Servo:
  37 0000 0000     		.space	2
  38              		.global	Pwm_Duty_Fan
  39              		.section	.bss.Pwm_Duty_Fan,"aw",%nobits
  40              		.align	1
  43              	Pwm_Duty_Fan:
  44 0000 0000     		.space	2
  45              		.global	Pwm_Servo_status
  46              		.section	.bss.Pwm_Servo_status,"aw",%nobits
  49              	Pwm_Servo_status:
  50 0000 00       		.space	1
  51              		.global	Pwm_Led_Mode
  52              		.section	.bss.Pwm_Led_Mode,"aw",%nobits
  55              	Pwm_Led_Mode:
  56 0000 00       		.space	1
  57              		.global	Target_Run_Temp
  58              		.section	.bss.Target_Run_Temp,"aw",%nobits
  59              		.align	1
  62              	Target_Run_Temp:
  63 0000 0000     		.space	2
  64              		.global	Target_Run_Time
  65              		.section	.bss.Target_Run_Time,"aw",%nobits
  66              		.align	2
  69              	Target_Run_Time:
  70 0000 00000000 		.space	4
  71              		.global	Target_Idle_Temp
  72              		.section	.bss.Target_Idle_Temp,"aw",%nobits
  73              		.align	1
ARM GAS  C:\Users\jisu8\AppData\Local\Temp\ccEFlPfe.s 			page 2


  76              	Target_Idle_Temp:
  77 0000 0000     		.space	2
  78              		.global	first_target_flag
  79              		.section	.bss.first_target_flag,"aw",%nobits
  82              	first_target_flag:
  83 0000 00       		.space	1
  84              		.global	Servo_timer
  85              		.section	.bss.Servo_timer,"aw",%nobits
  86              		.align	1
  89              	Servo_timer:
  90 0000 0000     		.space	2
  91              		.section	.text.Pwm_Output,"ax",%progbits
  92              		.align	1
  93              		.global	Pwm_Output
  94              		.syntax unified
  95              		.thumb
  96              		.thumb_func
  98              	Pwm_Output:
  99              	.LFB65:
 100              		.file 1 "Core/Src/pwm.c"
   1:Core/Src/pwm.c **** #include "pwm.h"
   2:Core/Src/pwm.c **** 
   3:Core/Src/pwm.c **** static void Pwm_SubMode_Target_Set(void);
   4:Core/Src/pwm.c **** static void Pwm_Control(void);
   5:Core/Src/pwm.c **** static void Pwm_Peltier_Set_Duty(uint16 duty);
   6:Core/Src/pwm.c **** static void Pwm_Heater_Set_Duty(uint16 duty);
   7:Core/Src/pwm.c **** static void Pwm_Servo_Set_Duty(uint16 duty);
   8:Core/Src/pwm.c **** static void Pwm_Fan_Set_Duty(uint16 duty);
   9:Core/Src/pwm.c **** 
  10:Core/Src/pwm.c **** sint16 Pwm_Duty_Peltier = 0;
  11:Core/Src/pwm.c **** sint16 Pwm_Duty_Heater = 0;
  12:Core/Src/pwm.c **** sint16 Pwm_Duty_Servo = 0;
  13:Core/Src/pwm.c **** sint16 Pwm_Duty_Fan = 0;
  14:Core/Src/pwm.c **** 
  15:Core/Src/pwm.c **** uint8 Pwm_Servo_status = 0;
  16:Core/Src/pwm.c **** 
  17:Core/Src/pwm.c **** uint8 Pwm_Led_Mode = 0;
  18:Core/Src/pwm.c **** 
  19:Core/Src/pwm.c **** sint16 Target_Run_Temp;
  20:Core/Src/pwm.c **** sint32 Target_Run_Time;
  21:Core/Src/pwm.c **** sint16 Target_Idle_Temp;
  22:Core/Src/pwm.c **** uint8 first_target_flag = 0;
  23:Core/Src/pwm.c **** 
  24:Core/Src/pwm.c **** extern uint8 switch4_mode;
  25:Core/Src/pwm.c **** uint16 Servo_timer;
  26:Core/Src/pwm.c **** void Pwm_Output(void)
  27:Core/Src/pwm.c **** {
 101              		.loc 1 27 1
 102              		.cfi_startproc
 103              		@ args = 0, pretend = 0, frame = 0
 104              		@ frame_needed = 1, uses_anonymous_args = 0
 105 0000 80B5     		push	{r7, lr}
 106              	.LCFI0:
 107              		.cfi_def_cfa_offset 8
 108              		.cfi_offset 7, -8
 109              		.cfi_offset 14, -4
 110 0002 00AF     		add	r7, sp, #0
ARM GAS  C:\Users\jisu8\AppData\Local\Temp\ccEFlPfe.s 			page 3


 111              	.LCFI1:
 112              		.cfi_def_cfa_register 7
  28:Core/Src/pwm.c ****     if(((switch_mode == SWITCH_MODE_RUN)&&(cup_in == 1))||
 113              		.loc 1 28 22
 114 0004 414B     		ldr	r3, .L10
 115 0006 1B78     		ldrb	r3, [r3]	@ zero_extendqisi2
 116              		.loc 1 28 7
 117 0008 032B     		cmp	r3, #3
 118 000a 03D1     		bne	.L2
 119              		.loc 1 28 51 discriminator 1
 120 000c 404B     		ldr	r3, .L10+4
 121 000e 1B78     		ldrb	r3, [r3]	@ zero_extendqisi2
 122              		.loc 1 28 41 discriminator 1
 123 0010 012B     		cmp	r3, #1
 124 0012 0BD0     		beq	.L3
 125              	.L2:
  29:Core/Src/pwm.c ****        (switch_mode == SWITCH_MODE_RUN)&&((switch_submode == SWITCH_SUB_MODE_18)||(switch_submode =
 126              		.loc 1 29 21 discriminator 3
 127 0014 3D4B     		ldr	r3, .L10
 128 0016 1B78     		ldrb	r3, [r3]	@ zero_extendqisi2
  28:Core/Src/pwm.c ****     if(((switch_mode == SWITCH_MODE_RUN)&&(cup_in == 1))||
 129              		.loc 1 28 57 discriminator 3
 130 0018 032B     		cmp	r3, #3
 131 001a 10D1     		bne	.L4
 132              		.loc 1 29 59
 133 001c 3D4B     		ldr	r3, .L10+8
 134 001e 1B78     		ldrb	r3, [r3]	@ zero_extendqisi2
 135              		.loc 1 29 40
 136 0020 122B     		cmp	r3, #18
 137 0022 03D0     		beq	.L3
 138              		.loc 1 29 99 discriminator 1
 139 0024 3B4B     		ldr	r3, .L10+8
 140 0026 1B78     		ldrb	r3, [r3]	@ zero_extendqisi2
 141              		.loc 1 29 81 discriminator 1
 142 0028 132B     		cmp	r3, #19
 143 002a 08D1     		bne	.L4
 144              	.L3:
  30:Core/Src/pwm.c ****     {
  31:Core/Src/pwm.c ****         if(PWM_SUBMODE_TARGET_ON == first_target_flag)
 145              		.loc 1 31 34
 146 002c 3A4B     		ldr	r3, .L10+12
 147 002e 1B78     		ldrb	r3, [r3]	@ zero_extendqisi2
 148              		.loc 1 31 11
 149 0030 012B     		cmp	r3, #1
 150 0032 01D1     		bne	.L5
  32:Core/Src/pwm.c ****         {
  33:Core/Src/pwm.c ****             Pwm_SubMode_Target_Set();
 151              		.loc 1 33 13
 152 0034 FFF7FEFF 		bl	Pwm_SubMode_Target_Set
 153              	.L5:
  34:Core/Src/pwm.c ****         }
  35:Core/Src/pwm.c ****         Pwm_Control();
 154              		.loc 1 35 9
 155 0038 FFF7FEFF 		bl	Pwm_Control
 156 003c 20E0     		b	.L6
 157              	.L4:
  36:Core/Src/pwm.c ****     }
ARM GAS  C:\Users\jisu8\AppData\Local\Temp\ccEFlPfe.s 			page 4


  37:Core/Src/pwm.c ****     else
  38:Core/Src/pwm.c ****     {
  39:Core/Src/pwm.c ****         first_target_flag = PWM_SUBMODE_TARGET_ON;
 158              		.loc 1 39 27
 159 003e 364B     		ldr	r3, .L10+12
 160 0040 0122     		movs	r2, #1
 161 0042 1A70     		strb	r2, [r3]
  40:Core/Src/pwm.c ****         Target_Run_Temp = 0;
 162              		.loc 1 40 25
 163 0044 354B     		ldr	r3, .L10+16
 164 0046 0022     		movs	r2, #0
 165 0048 1A80     		strh	r2, [r3]	@ movhi
  41:Core/Src/pwm.c ****         Target_Run_Time = 0;
 166              		.loc 1 41 25
 167 004a 354B     		ldr	r3, .L10+20
 168 004c 0022     		movs	r2, #0
 169 004e 1A60     		str	r2, [r3]
  42:Core/Src/pwm.c ****         Target_Idle_Temp = 0;
 170              		.loc 1 42 26
 171 0050 344B     		ldr	r3, .L10+24
 172 0052 0022     		movs	r2, #0
 173 0054 1A80     		strh	r2, [r3]	@ movhi
  43:Core/Src/pwm.c ****         Pwm_Duty_Peltier = 0;
 174              		.loc 1 43 26
 175 0056 344B     		ldr	r3, .L10+28
 176 0058 0022     		movs	r2, #0
 177 005a 1A80     		strh	r2, [r3]	@ movhi
  44:Core/Src/pwm.c ****         Pwm_Duty_Heater = 0;
 178              		.loc 1 44 25
 179 005c 334B     		ldr	r3, .L10+32
 180 005e 0022     		movs	r2, #0
 181 0060 1A80     		strh	r2, [r3]	@ movhi
  45:Core/Src/pwm.c ****         Pwm_Duty_Fan = 0;
 182              		.loc 1 45 22
 183 0062 334B     		ldr	r3, .L10+36
 184 0064 0022     		movs	r2, #0
 185 0066 1A80     		strh	r2, [r3]	@ movhi
  46:Core/Src/pwm.c ****         Pwm_Peltier_Set_Duty(0);
 186              		.loc 1 46 9
 187 0068 0020     		movs	r0, #0
 188 006a FFF7FEFF 		bl	Pwm_Peltier_Set_Duty
  47:Core/Src/pwm.c ****         Pwm_Heater_Set_Duty(0);
 189              		.loc 1 47 9
 190 006e 0020     		movs	r0, #0
 191 0070 FFF7FEFF 		bl	Pwm_Heater_Set_Duty
  48:Core/Src/pwm.c ****         Pwm_Fan_Set_Duty(0);        
 192              		.loc 1 48 9
 193 0074 0020     		movs	r0, #0
 194 0076 FFF7FEFF 		bl	Pwm_Fan_Set_Duty
  49:Core/Src/pwm.c ****         Pwm_Led_Mode = PWM_LED_MODE_NONE;
 195              		.loc 1 49 22
 196 007a 2E4B     		ldr	r3, .L10+40
 197 007c 0022     		movs	r2, #0
 198 007e 1A70     		strb	r2, [r3]
 199              	.L6:
  50:Core/Src/pwm.c ****     }
  51:Core/Src/pwm.c **** 
ARM GAS  C:\Users\jisu8\AppData\Local\Temp\ccEFlPfe.s 			page 5


  52:Core/Src/pwm.c ****     if((switch4_mode == 1)&&(Pwm_Servo_status == PWM_SERVO_STATUS_RUN))
 200              		.loc 1 52 22
 201 0080 2D4B     		ldr	r3, .L10+44
 202 0082 1B78     		ldrb	r3, [r3]	@ zero_extendqisi2
 203              		.loc 1 52 7
 204 0084 012B     		cmp	r3, #1
 205 0086 19D1     		bne	.L7
 206              		.loc 1 52 47 discriminator 1
 207 0088 2C4B     		ldr	r3, .L10+48
 208 008a 1B78     		ldrb	r3, [r3]	@ zero_extendqisi2
 209              		.loc 1 52 27 discriminator 1
 210 008c 012B     		cmp	r3, #1
 211 008e 15D1     		bne	.L7
  53:Core/Src/pwm.c ****     {
  54:Core/Src/pwm.c ****         Pwm_Duty_Servo = PWM_SERVO_180_DEGREE;
 212              		.loc 1 54 24
 213 0090 2B4B     		ldr	r3, .L10+52
 214 0092 7F22     		movs	r2, #127
 215 0094 1A80     		strh	r2, [r3]	@ movhi
  55:Core/Src/pwm.c ****         Servo_timer++;
 216              		.loc 1 55 20
 217 0096 2B4B     		ldr	r3, .L10+56
 218 0098 1B88     		ldrh	r3, [r3]
 219 009a 0133     		adds	r3, r3, #1
 220 009c 9AB2     		uxth	r2, r3
 221 009e 294B     		ldr	r3, .L10+56
 222 00a0 1A80     		strh	r2, [r3]	@ movhi
  56:Core/Src/pwm.c ****         if(Servo_timer>=20)
 223              		.loc 1 56 23
 224 00a2 284B     		ldr	r3, .L10+56
 225 00a4 1B88     		ldrh	r3, [r3]
 226              		.loc 1 56 11
 227 00a6 132B     		cmp	r3, #19
 228 00a8 08D9     		bls	.L7
  57:Core/Src/pwm.c ****         {
  58:Core/Src/pwm.c ****             Servo_timer = 20;
 229              		.loc 1 58 25
 230 00aa 264B     		ldr	r3, .L10+56
 231 00ac 1422     		movs	r2, #20
 232 00ae 1A80     		strh	r2, [r3]	@ movhi
  59:Core/Src/pwm.c ****             Pwm_Servo_status = PWM_SERVO_STATUS_STOP;
 233              		.loc 1 59 30
 234 00b0 224B     		ldr	r3, .L10+48
 235 00b2 0022     		movs	r2, #0
 236 00b4 1A70     		strb	r2, [r3]
  60:Core/Src/pwm.c ****             Pwm_Duty_Servo = PWM_SERVO_OFF;
 237              		.loc 1 60 28
 238 00b6 224B     		ldr	r3, .L10+52
 239 00b8 0022     		movs	r2, #0
 240 00ba 1A80     		strh	r2, [r3]	@ movhi
 241              	.L7:
  61:Core/Src/pwm.c ****         }
  62:Core/Src/pwm.c ****     }
  63:Core/Src/pwm.c ****     if((switch4_mode == 0)&&(Pwm_Servo_status == PWM_SERVO_STATUS_RUN))
 242              		.loc 1 63 22
 243 00bc 1E4B     		ldr	r3, .L10+44
 244 00be 1B78     		ldrb	r3, [r3]	@ zero_extendqisi2
ARM GAS  C:\Users\jisu8\AppData\Local\Temp\ccEFlPfe.s 			page 6


 245              		.loc 1 63 7
 246 00c0 002B     		cmp	r3, #0
 247 00c2 19D1     		bne	.L8
 248              		.loc 1 63 47 discriminator 1
 249 00c4 1D4B     		ldr	r3, .L10+48
 250 00c6 1B78     		ldrb	r3, [r3]	@ zero_extendqisi2
 251              		.loc 1 63 27 discriminator 1
 252 00c8 012B     		cmp	r3, #1
 253 00ca 15D1     		bne	.L8
  64:Core/Src/pwm.c ****     {
  65:Core/Src/pwm.c ****         Pwm_Duty_Servo = PWM_SERVO_0_DEGREE;
 254              		.loc 1 65 24
 255 00cc 1C4B     		ldr	r3, .L10+52
 256 00ce 2022     		movs	r2, #32
 257 00d0 1A80     		strh	r2, [r3]	@ movhi
  66:Core/Src/pwm.c ****         Servo_timer++;
 258              		.loc 1 66 20
 259 00d2 1C4B     		ldr	r3, .L10+56
 260 00d4 1B88     		ldrh	r3, [r3]
 261 00d6 0133     		adds	r3, r3, #1
 262 00d8 9AB2     		uxth	r2, r3
 263 00da 1A4B     		ldr	r3, .L10+56
 264 00dc 1A80     		strh	r2, [r3]	@ movhi
  67:Core/Src/pwm.c ****         if(Servo_timer>=20)
 265              		.loc 1 67 23
 266 00de 194B     		ldr	r3, .L10+56
 267 00e0 1B88     		ldrh	r3, [r3]
 268              		.loc 1 67 11
 269 00e2 132B     		cmp	r3, #19
 270 00e4 08D9     		bls	.L8
  68:Core/Src/pwm.c ****         {
  69:Core/Src/pwm.c ****             Servo_timer = 20;
 271              		.loc 1 69 25
 272 00e6 174B     		ldr	r3, .L10+56
 273 00e8 1422     		movs	r2, #20
 274 00ea 1A80     		strh	r2, [r3]	@ movhi
  70:Core/Src/pwm.c ****             Pwm_Servo_status = PWM_SERVO_STATUS_STOP;
 275              		.loc 1 70 30
 276 00ec 134B     		ldr	r3, .L10+48
 277 00ee 0022     		movs	r2, #0
 278 00f0 1A70     		strb	r2, [r3]
  71:Core/Src/pwm.c ****             Pwm_Duty_Servo = PWM_SERVO_OFF;
 279              		.loc 1 71 28
 280 00f2 134B     		ldr	r3, .L10+52
 281 00f4 0022     		movs	r2, #0
 282 00f6 1A80     		strh	r2, [r3]	@ movhi
 283              	.L8:
  72:Core/Src/pwm.c ****         }
  73:Core/Src/pwm.c ****     }
  74:Core/Src/pwm.c **** 
  75:Core/Src/pwm.c ****     Pwm_Servo_Set_Duty(Pwm_Duty_Servo);
 284              		.loc 1 75 5
 285 00f8 114B     		ldr	r3, .L10+52
 286 00fa B3F90030 		ldrsh	r3, [r3]
 287 00fe 9BB2     		uxth	r3, r3
 288 0100 1846     		mov	r0, r3
 289 0102 FFF7FEFF 		bl	Pwm_Servo_Set_Duty
ARM GAS  C:\Users\jisu8\AppData\Local\Temp\ccEFlPfe.s 			page 7


  76:Core/Src/pwm.c ****     return;
 290              		.loc 1 76 5
 291 0106 00BF     		nop
  77:Core/Src/pwm.c **** }
 292              		.loc 1 77 1
 293 0108 80BD     		pop	{r7, pc}
 294              	.L11:
 295 010a 00BF     		.align	2
 296              	.L10:
 297 010c 00000000 		.word	switch_mode
 298 0110 00000000 		.word	cup_in
 299 0114 00000000 		.word	switch_submode
 300 0118 00000000 		.word	first_target_flag
 301 011c 00000000 		.word	Target_Run_Temp
 302 0120 00000000 		.word	Target_Run_Time
 303 0124 00000000 		.word	Target_Idle_Temp
 304 0128 00000000 		.word	Pwm_Duty_Peltier
 305 012c 00000000 		.word	Pwm_Duty_Heater
 306 0130 00000000 		.word	Pwm_Duty_Fan
 307 0134 00000000 		.word	Pwm_Led_Mode
 308 0138 00000000 		.word	switch4_mode
 309 013c 00000000 		.word	Pwm_Servo_status
 310 0140 00000000 		.word	Pwm_Duty_Servo
 311 0144 00000000 		.word	Servo_timer
 312              		.cfi_endproc
 313              	.LFE65:
 315              		.section	.text.Pwm_SubMode_Target_Set,"ax",%progbits
 316              		.align	1
 317              		.syntax unified
 318              		.thumb
 319              		.thumb_func
 321              	Pwm_SubMode_Target_Set:
 322              	.LFB66:
  78:Core/Src/pwm.c **** static void Pwm_SubMode_Target_Set(void)
  79:Core/Src/pwm.c **** {
 323              		.loc 1 79 1
 324              		.cfi_startproc
 325              		@ args = 0, pretend = 0, frame = 0
 326              		@ frame_needed = 1, uses_anonymous_args = 0
 327              		@ link register save eliminated.
 328 0000 80B4     		push	{r7}
 329              	.LCFI2:
 330              		.cfi_def_cfa_offset 4
 331              		.cfi_offset 7, -4
 332 0002 00AF     		add	r7, sp, #0
 333              	.LCFI3:
 334              		.cfi_def_cfa_register 7
  80:Core/Src/pwm.c ****     switch(switch_submode)
 335              		.loc 1 80 5
 336 0004 8B4B     		ldr	r3, .L35
 337 0006 1B78     		ldrb	r3, [r3]	@ zero_extendqisi2
 338 0008 013B     		subs	r3, r3, #1
 339 000a 122B     		cmp	r3, #18
 340 000c 00F20481 		bhi	.L13
 341 0010 01A2     		adr	r2, .L15
 342 0012 52F823F0 		ldr	pc, [r2, r3, lsl #2]
 343 0016 00BF     		.p2align 2
ARM GAS  C:\Users\jisu8\AppData\Local\Temp\ccEFlPfe.s 			page 8


 344              	.L15:
 345 0018 65000000 		.word	.L33+1
 346 001c 7B000000 		.word	.L32+1
 347 0020 91000000 		.word	.L31+1
 348 0024 A7000000 		.word	.L30+1
 349 0028 BD000000 		.word	.L29+1
 350 002c D3000000 		.word	.L28+1
 351 0030 E9000000 		.word	.L27+1
 352 0034 FF000000 		.word	.L26+1
 353 0038 15010000 		.word	.L25+1
 354 003c 2B010000 		.word	.L24+1
 355 0040 41010000 		.word	.L23+1
 356 0044 57010000 		.word	.L22+1
 357 0048 6D010000 		.word	.L21+1
 358 004c 81010000 		.word	.L20+1
 359 0050 97010000 		.word	.L19+1
 360 0054 AD010000 		.word	.L18+1
 361 0058 C3010000 		.word	.L17+1
 362 005c ED010000 		.word	.L16+1
 363 0060 03020000 		.word	.L14+1
 364              		.p2align 1
 365              	.L33:
  81:Core/Src/pwm.c ****     {
  82:Core/Src/pwm.c ****         case SWITCH_SUB_MODE_1 :
  83:Core/Src/pwm.c ****             Target_Run_Temp = PWM_RUN_TEMP_1;
 366              		.loc 1 83 29
 367 0064 744B     		ldr	r3, .L35+4
 368 0066 5A22     		movs	r2, #90
 369 0068 1A80     		strh	r2, [r3]	@ movhi
  84:Core/Src/pwm.c ****             Target_Run_Time = PWM_RUN_TIME_1;
 370              		.loc 1 84 29
 371 006a 744B     		ldr	r3, .L35+8
 372 006c 4EF66022 		movw	r2, #60000
 373 0070 1A60     		str	r2, [r3]
  85:Core/Src/pwm.c ****             Target_Idle_Temp = PWM_IDLE_TEMP_1;
 374              		.loc 1 85 30
 375 0072 734B     		ldr	r3, .L35+12
 376 0074 4122     		movs	r2, #65
 377 0076 1A80     		strh	r2, [r3]	@ movhi
  86:Core/Src/pwm.c ****         break;
 378              		.loc 1 86 9
 379 0078 D8E0     		b	.L34
 380              	.L32:
  87:Core/Src/pwm.c ****         case SWITCH_SUB_MODE_2 :
  88:Core/Src/pwm.c ****             Target_Run_Temp = PWM_RUN_TEMP_2;
 381              		.loc 1 88 29
 382 007a 6F4B     		ldr	r3, .L35+4
 383 007c 5A22     		movs	r2, #90
 384 007e 1A80     		strh	r2, [r3]	@ movhi
  89:Core/Src/pwm.c ****             Target_Run_Time = PWM_RUN_TIME_2;
 385              		.loc 1 89 29
 386 0080 6E4B     		ldr	r3, .L35+8
 387 0082 41F27072 		movw	r2, #6000
 388 0086 1A60     		str	r2, [r3]
  90:Core/Src/pwm.c ****             Target_Idle_Temp = PWM_IDLE_TEMP_2; 
 389              		.loc 1 90 30
 390 0088 6D4B     		ldr	r3, .L35+12
ARM GAS  C:\Users\jisu8\AppData\Local\Temp\ccEFlPfe.s 			page 9


 391 008a 4122     		movs	r2, #65
 392 008c 1A80     		strh	r2, [r3]	@ movhi
  91:Core/Src/pwm.c ****         break;
 393              		.loc 1 91 9
 394 008e CDE0     		b	.L34
 395              	.L31:
  92:Core/Src/pwm.c ****         case SWITCH_SUB_MODE_3 :
  93:Core/Src/pwm.c ****             Target_Run_Temp = PWM_RUN_TEMP_3;
 396              		.loc 1 93 29
 397 0090 694B     		ldr	r3, .L35+4
 398 0092 5A22     		movs	r2, #90
 399 0094 1A80     		strh	r2, [r3]	@ movhi
  94:Core/Src/pwm.c ****             Target_Run_Time = PWM_RUN_TIME_3;
 400              		.loc 1 94 29
 401 0096 694B     		ldr	r3, .L35+8
 402 0098 41F27072 		movw	r2, #6000
 403 009c 1A60     		str	r2, [r3]
  95:Core/Src/pwm.c ****             Target_Idle_Temp = PWM_IDLE_TEMP_3; 
 404              		.loc 1 95 30
 405 009e 684B     		ldr	r3, .L35+12
 406 00a0 0522     		movs	r2, #5
 407 00a2 1A80     		strh	r2, [r3]	@ movhi
  96:Core/Src/pwm.c ****         break;
 408              		.loc 1 96 9
 409 00a4 C2E0     		b	.L34
 410              	.L30:
  97:Core/Src/pwm.c ****         case SWITCH_SUB_MODE_4 :
  98:Core/Src/pwm.c ****             Target_Run_Temp = PWM_RUN_TEMP_4;
 411              		.loc 1 98 29
 412 00a6 644B     		ldr	r3, .L35+4
 413 00a8 4122     		movs	r2, #65
 414 00aa 1A80     		strh	r2, [r3]	@ movhi
  99:Core/Src/pwm.c ****             Target_Run_Time = PWM_RUN_TIME_4;
 415              		.loc 1 99 29
 416 00ac 634B     		ldr	r3, .L35+8
 417 00ae 41F27072 		movw	r2, #6000
 418 00b2 1A60     		str	r2, [r3]
 100:Core/Src/pwm.c ****             Target_Idle_Temp = PWM_IDLE_TEMP_4; 
 419              		.loc 1 100 30
 420 00b4 624B     		ldr	r3, .L35+12
 421 00b6 4122     		movs	r2, #65
 422 00b8 1A80     		strh	r2, [r3]	@ movhi
 101:Core/Src/pwm.c ****         break;
 423              		.loc 1 101 9
 424 00ba B7E0     		b	.L34
 425              	.L29:
 102:Core/Src/pwm.c ****         case SWITCH_SUB_MODE_5 :
 103:Core/Src/pwm.c ****             Target_Run_Temp = PWM_RUN_TEMP_5;
 426              		.loc 1 103 29
 427 00bc 5E4B     		ldr	r3, .L35+4
 428 00be 0522     		movs	r2, #5
 429 00c0 1A80     		strh	r2, [r3]	@ movhi
 104:Core/Src/pwm.c ****             Target_Run_Time = PWM_RUN_TIME_5;
 430              		.loc 1 104 29
 431 00c2 5E4B     		ldr	r3, .L35+8
 432 00c4 41F27072 		movw	r2, #6000
 433 00c8 1A60     		str	r2, [r3]
ARM GAS  C:\Users\jisu8\AppData\Local\Temp\ccEFlPfe.s 			page 10


 105:Core/Src/pwm.c ****             Target_Idle_Temp = PWM_IDLE_TEMP_5; 
 434              		.loc 1 105 30
 435 00ca 5D4B     		ldr	r3, .L35+12
 436 00cc 0522     		movs	r2, #5
 437 00ce 1A80     		strh	r2, [r3]	@ movhi
 106:Core/Src/pwm.c ****         break;
 438              		.loc 1 106 9
 439 00d0 ACE0     		b	.L34
 440              	.L28:
 107:Core/Src/pwm.c ****         case SWITCH_SUB_MODE_6 :
 108:Core/Src/pwm.c ****             Target_Run_Temp = PWM_RUN_TEMP_6;
 441              		.loc 1 108 29
 442 00d2 594B     		ldr	r3, .L35+4
 443 00d4 5A22     		movs	r2, #90
 444 00d6 1A80     		strh	r2, [r3]	@ movhi
 109:Core/Src/pwm.c ****             Target_Run_Time = PWM_RUN_TIME_6;
 445              		.loc 1 109 29
 446 00d8 584B     		ldr	r3, .L35+8
 447 00da 41F27072 		movw	r2, #6000
 448 00de 1A60     		str	r2, [r3]
 110:Core/Src/pwm.c ****             Target_Idle_Temp = PWM_IDLE_TEMP_6; 
 449              		.loc 1 110 30
 450 00e0 574B     		ldr	r3, .L35+12
 451 00e2 4122     		movs	r2, #65
 452 00e4 1A80     		strh	r2, [r3]	@ movhi
 111:Core/Src/pwm.c ****         break;
 453              		.loc 1 111 9
 454 00e6 A1E0     		b	.L34
 455              	.L27:
 112:Core/Src/pwm.c ****         case SWITCH_SUB_MODE_7 :
 113:Core/Src/pwm.c ****             Target_Run_Temp = PWM_RUN_TEMP_7;
 456              		.loc 1 113 29
 457 00e8 534B     		ldr	r3, .L35+4
 458 00ea 2822     		movs	r2, #40
 459 00ec 1A80     		strh	r2, [r3]	@ movhi
 114:Core/Src/pwm.c ****             Target_Run_Time = PWM_RUN_TIME_7;
 460              		.loc 1 114 29
 461 00ee 534B     		ldr	r3, .L35+8
 462 00f0 44F25062 		movw	r2, #18000
 463 00f4 1A60     		str	r2, [r3]
 115:Core/Src/pwm.c ****             Target_Idle_Temp = PWM_IDLE_TEMP_7; 
 464              		.loc 1 115 30
 465 00f6 524B     		ldr	r3, .L35+12
 466 00f8 0522     		movs	r2, #5
 467 00fa 1A80     		strh	r2, [r3]	@ movhi
 116:Core/Src/pwm.c ****         break;
 468              		.loc 1 116 9
 469 00fc 96E0     		b	.L34
 470              	.L26:
 117:Core/Src/pwm.c ****         case SWITCH_SUB_MODE_8 :
 118:Core/Src/pwm.c ****             Target_Run_Temp = PWM_RUN_TEMP_8;
 471              		.loc 1 118 29
 472 00fe 4E4B     		ldr	r3, .L35+4
 473 0100 5A22     		movs	r2, #90
 474 0102 1A80     		strh	r2, [r3]	@ movhi
 119:Core/Src/pwm.c ****             Target_Run_Time = PWM_RUN_TIME_8;
 475              		.loc 1 119 29
ARM GAS  C:\Users\jisu8\AppData\Local\Temp\ccEFlPfe.s 			page 11


 476 0104 4D4B     		ldr	r3, .L35+8
 477 0106 44F25062 		movw	r2, #18000
 478 010a 1A60     		str	r2, [r3]
 120:Core/Src/pwm.c ****             Target_Idle_Temp = PWM_IDLE_TEMP_8; 
 479              		.loc 1 120 30
 480 010c 4C4B     		ldr	r3, .L35+12
 481 010e 4122     		movs	r2, #65
 482 0110 1A80     		strh	r2, [r3]	@ movhi
 121:Core/Src/pwm.c ****         break;
 483              		.loc 1 121 9
 484 0112 8BE0     		b	.L34
 485              	.L25:
 122:Core/Src/pwm.c ****         case SWITCH_SUB_MODE_9 :
 123:Core/Src/pwm.c ****             Target_Run_Temp = PWM_RUN_TEMP_9;
 486              		.loc 1 123 29
 487 0114 484B     		ldr	r3, .L35+4
 488 0116 5A22     		movs	r2, #90
 489 0118 1A80     		strh	r2, [r3]	@ movhi
 124:Core/Src/pwm.c ****             Target_Run_Time = PWM_RUN_TIME_9;
 490              		.loc 1 124 29
 491 011a 484B     		ldr	r3, .L35+8
 492 011c 4EF66022 		movw	r2, #60000
 493 0120 1A60     		str	r2, [r3]
 125:Core/Src/pwm.c ****             Target_Idle_Temp = PWM_IDLE_TEMP_9; 
 494              		.loc 1 125 30
 495 0122 474B     		ldr	r3, .L35+12
 496 0124 4122     		movs	r2, #65
 497 0126 1A80     		strh	r2, [r3]	@ movhi
 126:Core/Src/pwm.c ****         break;
 498              		.loc 1 126 9
 499 0128 80E0     		b	.L34
 500              	.L24:
 127:Core/Src/pwm.c ****         case SWITCH_SUB_MODE_10 :
 128:Core/Src/pwm.c ****             Target_Run_Temp = PWM_RUN_TEMP_10;
 501              		.loc 1 128 29
 502 012a 434B     		ldr	r3, .L35+4
 503 012c 5A22     		movs	r2, #90
 504 012e 1A80     		strh	r2, [r3]	@ movhi
 129:Core/Src/pwm.c ****             Target_Run_Time = PWM_RUN_TIME_10;
 505              		.loc 1 129 29
 506 0130 424B     		ldr	r3, .L35+8
 507 0132 42F6E062 		movw	r2, #12000
 508 0136 1A60     		str	r2, [r3]
 130:Core/Src/pwm.c ****             Target_Idle_Temp = PWM_IDLE_TEMP_10; 
 509              		.loc 1 130 30
 510 0138 414B     		ldr	r3, .L35+12
 511 013a 4122     		movs	r2, #65
 512 013c 1A80     		strh	r2, [r3]	@ movhi
 131:Core/Src/pwm.c ****         break;
 513              		.loc 1 131 9
 514 013e 75E0     		b	.L34
 515              	.L23:
 132:Core/Src/pwm.c ****         case SWITCH_SUB_MODE_11 :
 133:Core/Src/pwm.c ****             Target_Run_Temp = PWM_RUN_TEMP_11;
 516              		.loc 1 133 29
 517 0140 3D4B     		ldr	r3, .L35+4
 518 0142 5A22     		movs	r2, #90
ARM GAS  C:\Users\jisu8\AppData\Local\Temp\ccEFlPfe.s 			page 12


 519 0144 1A80     		strh	r2, [r3]	@ movhi
 134:Core/Src/pwm.c ****             Target_Run_Time = PWM_RUN_TIME_11;
 520              		.loc 1 134 29
 521 0146 3D4B     		ldr	r3, .L35+8
 522 0148 47F23052 		movw	r2, #30000
 523 014c 1A60     		str	r2, [r3]
 135:Core/Src/pwm.c ****             Target_Idle_Temp = PWM_IDLE_TEMP_11; 
 524              		.loc 1 135 30
 525 014e 3C4B     		ldr	r3, .L35+12
 526 0150 4122     		movs	r2, #65
 527 0152 1A80     		strh	r2, [r3]	@ movhi
 136:Core/Src/pwm.c ****         break;
 528              		.loc 1 136 9
 529 0154 6AE0     		b	.L34
 530              	.L22:
 137:Core/Src/pwm.c ****         case SWITCH_SUB_MODE_12 :
 138:Core/Src/pwm.c ****             Target_Run_Temp = PWM_RUN_TEMP_12;
 531              		.loc 1 138 29
 532 0156 384B     		ldr	r3, .L35+4
 533 0158 5A22     		movs	r2, #90
 534 015a 1A80     		strh	r2, [r3]	@ movhi
 139:Core/Src/pwm.c ****             Target_Run_Time = PWM_RUN_TIME_12;
 535              		.loc 1 139 29
 536 015c 374B     		ldr	r3, .L35+8
 537 015e 41F27072 		movw	r2, #6000
 538 0162 1A60     		str	r2, [r3]
 140:Core/Src/pwm.c ****             Target_Idle_Temp = PWM_IDLE_TEMP_12; 
 539              		.loc 1 140 30
 540 0164 364B     		ldr	r3, .L35+12
 541 0166 4122     		movs	r2, #65
 542 0168 1A80     		strh	r2, [r3]	@ movhi
 141:Core/Src/pwm.c ****         break;
 543              		.loc 1 141 9
 544 016a 5FE0     		b	.L34
 545              	.L21:
 142:Core/Src/pwm.c ****         case SWITCH_SUB_MODE_13 :
 143:Core/Src/pwm.c ****             Target_Run_Temp = PWM_RUN_TEMP_13;
 546              		.loc 1 143 29
 547 016c 324B     		ldr	r3, .L35+4
 548 016e 5022     		movs	r2, #80
 549 0170 1A80     		strh	r2, [r3]	@ movhi
 144:Core/Src/pwm.c ****             Target_Run_Time = PWM_RUN_TIME_13;
 550              		.loc 1 144 29
 551 0172 324B     		ldr	r3, .L35+8
 552 0174 334A     		ldr	r2, .L35+16
 553 0176 1A60     		str	r2, [r3]
 145:Core/Src/pwm.c ****             Target_Idle_Temp = PWM_IDLE_TEMP_13; 
 554              		.loc 1 145 30
 555 0178 314B     		ldr	r3, .L35+12
 556 017a 4122     		movs	r2, #65
 557 017c 1A80     		strh	r2, [r3]	@ movhi
 146:Core/Src/pwm.c ****         break;
 558              		.loc 1 146 9
 559 017e 55E0     		b	.L34
 560              	.L20:
 147:Core/Src/pwm.c ****         case SWITCH_SUB_MODE_14 :
 148:Core/Src/pwm.c ****             Target_Run_Temp = PWM_RUN_TEMP_14;
ARM GAS  C:\Users\jisu8\AppData\Local\Temp\ccEFlPfe.s 			page 13


 561              		.loc 1 148 29
 562 0180 2D4B     		ldr	r3, .L35+4
 563 0182 5A22     		movs	r2, #90
 564 0184 1A80     		strh	r2, [r3]	@ movhi
 149:Core/Src/pwm.c ****             Target_Run_Time = PWM_RUN_TIME_14;
 565              		.loc 1 149 29
 566 0186 2D4B     		ldr	r3, .L35+8
 567 0188 42F6E062 		movw	r2, #12000
 568 018c 1A60     		str	r2, [r3]
 150:Core/Src/pwm.c ****             Target_Idle_Temp = PWM_IDLE_TEMP_14; 
 569              		.loc 1 150 30
 570 018e 2C4B     		ldr	r3, .L35+12
 571 0190 4122     		movs	r2, #65
 572 0192 1A80     		strh	r2, [r3]	@ movhi
 151:Core/Src/pwm.c ****         break;
 573              		.loc 1 151 9
 574 0194 4AE0     		b	.L34
 575              	.L19:
 152:Core/Src/pwm.c ****         case SWITCH_SUB_MODE_15 :
 153:Core/Src/pwm.c ****             Target_Run_Temp = PWM_RUN_TEMP_15;
 576              		.loc 1 153 29
 577 0196 284B     		ldr	r3, .L35+4
 578 0198 5A22     		movs	r2, #90
 579 019a 1A80     		strh	r2, [r3]	@ movhi
 154:Core/Src/pwm.c ****             Target_Run_Time = PWM_RUN_TIME_15;
 580              		.loc 1 154 29
 581 019c 274B     		ldr	r3, .L35+8
 582 019e 47F23052 		movw	r2, #30000
 583 01a2 1A60     		str	r2, [r3]
 155:Core/Src/pwm.c ****             Target_Idle_Temp = PWM_IDLE_TEMP_15; 
 584              		.loc 1 155 30
 585 01a4 264B     		ldr	r3, .L35+12
 586 01a6 4122     		movs	r2, #65
 587 01a8 1A80     		strh	r2, [r3]	@ movhi
 156:Core/Src/pwm.c ****         break;
 588              		.loc 1 156 9
 589 01aa 3FE0     		b	.L34
 590              	.L18:
 157:Core/Src/pwm.c ****         case SWITCH_SUB_MODE_16 :
 158:Core/Src/pwm.c ****             Target_Run_Temp = PWM_RUN_TEMP_16;
 591              		.loc 1 158 29
 592 01ac 224B     		ldr	r3, .L35+4
 593 01ae 5A22     		movs	r2, #90
 594 01b0 1A80     		strh	r2, [r3]	@ movhi
 159:Core/Src/pwm.c ****             Target_Run_Time = PWM_RUN_TIME_16;
 595              		.loc 1 159 29
 596 01b2 224B     		ldr	r3, .L35+8
 597 01b4 42F6E062 		movw	r2, #12000
 598 01b8 1A60     		str	r2, [r3]
 160:Core/Src/pwm.c ****             Target_Idle_Temp = PWM_IDLE_TEMP_16; 
 599              		.loc 1 160 30
 600 01ba 214B     		ldr	r3, .L35+12
 601 01bc 2822     		movs	r2, #40
 602 01be 1A80     		strh	r2, [r3]	@ movhi
 161:Core/Src/pwm.c ****         break;
 603              		.loc 1 161 9
 604 01c0 34E0     		b	.L34
ARM GAS  C:\Users\jisu8\AppData\Local\Temp\ccEFlPfe.s 			page 14


 605              	.L17:
 162:Core/Src/pwm.c ****         case SWITCH_SUB_MODE_17 :
 163:Core/Src/pwm.c ****             Target_Run_Temp = switch_trg_temp;
 606              		.loc 1 163 29
 607 01c2 214B     		ldr	r3, .L35+20
 608 01c4 B3F90020 		ldrsh	r2, [r3]
 609 01c8 1B4B     		ldr	r3, .L35+4
 610 01ca 1A80     		strh	r2, [r3]	@ movhi
 164:Core/Src/pwm.c ****             Target_Run_Time = (sint32)(switch_trg_time * 60 * 100);
 611              		.loc 1 164 31
 612 01cc 1F4B     		ldr	r3, .L35+24
 613 01ce B3F90030 		ldrsh	r3, [r3]
 614 01d2 1A46     		mov	r2, r3
 615 01d4 41F27073 		movw	r3, #6000
 616 01d8 02FB03F3 		mul	r3, r2, r3
 617              		.loc 1 164 29
 618 01dc 174A     		ldr	r2, .L35+8
 619 01de 1360     		str	r3, [r2]
 165:Core/Src/pwm.c ****             Target_Idle_Temp = switch_idle_temp; 
 620              		.loc 1 165 30
 621 01e0 1B4B     		ldr	r3, .L35+28
 622 01e2 B3F90020 		ldrsh	r2, [r3]
 623 01e6 164B     		ldr	r3, .L35+12
 624 01e8 1A80     		strh	r2, [r3]	@ movhi
 166:Core/Src/pwm.c ****         break;
 625              		.loc 1 166 9
 626 01ea 1FE0     		b	.L34
 627              	.L16:
 167:Core/Src/pwm.c ****         case SWITCH_SUB_MODE_18 :
 168:Core/Src/pwm.c ****             Target_Run_Temp = PWM_RUN_TEMP_18;
 628              		.loc 1 168 29
 629 01ec 124B     		ldr	r3, .L35+4
 630 01ee 0522     		movs	r2, #5
 631 01f0 1A80     		strh	r2, [r3]	@ movhi
 169:Core/Src/pwm.c ****             Target_Run_Time = PWM_RUN_TIME_18;
 632              		.loc 1 169 29
 633 01f2 124B     		ldr	r3, .L35+8
 634 01f4 41F27072 		movw	r2, #6000
 635 01f8 1A60     		str	r2, [r3]
 170:Core/Src/pwm.c ****             Target_Idle_Temp = PWM_IDLE_TEMP_18; 
 636              		.loc 1 170 30
 637 01fa 114B     		ldr	r3, .L35+12
 638 01fc 0522     		movs	r2, #5
 639 01fe 1A80     		strh	r2, [r3]	@ movhi
 171:Core/Src/pwm.c ****         break;
 640              		.loc 1 171 9
 641 0200 14E0     		b	.L34
 642              	.L14:
 172:Core/Src/pwm.c ****         case SWITCH_SUB_MODE_19 :
 173:Core/Src/pwm.c ****             Target_Run_Temp = PWM_RUN_TEMP_19;
 643              		.loc 1 173 29
 644 0202 0D4B     		ldr	r3, .L35+4
 645 0204 3C22     		movs	r2, #60
 646 0206 1A80     		strh	r2, [r3]	@ movhi
 174:Core/Src/pwm.c ****             Target_Run_Time = PWM_RUN_TIME_19;
 647              		.loc 1 174 29
 648 0208 0C4B     		ldr	r3, .L35+8
ARM GAS  C:\Users\jisu8\AppData\Local\Temp\ccEFlPfe.s 			page 15


 649 020a 41F27072 		movw	r2, #6000
 650 020e 1A60     		str	r2, [r3]
 175:Core/Src/pwm.c ****             Target_Idle_Temp = PWM_IDLE_TEMP_19; 
 651              		.loc 1 175 30
 652 0210 0B4B     		ldr	r3, .L35+12
 653 0212 3C22     		movs	r2, #60
 654 0214 1A80     		strh	r2, [r3]	@ movhi
 176:Core/Src/pwm.c ****         break;
 655              		.loc 1 176 9
 656 0216 09E0     		b	.L34
 657              	.L13:
 177:Core/Src/pwm.c ****         default :
 178:Core/Src/pwm.c ****             Target_Run_Temp = PWM_RUN_TEMP_0;
 658              		.loc 1 178 29
 659 0218 074B     		ldr	r3, .L35+4
 660 021a 0022     		movs	r2, #0
 661 021c 1A80     		strh	r2, [r3]	@ movhi
 179:Core/Src/pwm.c ****             Target_Run_Time = PWM_RUN_TIME_0;
 662              		.loc 1 179 29
 663 021e 074B     		ldr	r3, .L35+8
 664 0220 0022     		movs	r2, #0
 665 0222 1A60     		str	r2, [r3]
 180:Core/Src/pwm.c ****             Target_Idle_Temp = PWM_IDLE_TEMP_0; 
 666              		.loc 1 180 30
 667 0224 064B     		ldr	r3, .L35+12
 668 0226 0022     		movs	r2, #0
 669 0228 1A80     		strh	r2, [r3]	@ movhi
 181:Core/Src/pwm.c ****         break;
 670              		.loc 1 181 9
 671 022a 00BF     		nop
 672              	.L34:
 182:Core/Src/pwm.c ****     }
 183:Core/Src/pwm.c **** }
 673              		.loc 1 183 1
 674 022c 00BF     		nop
 675 022e BD46     		mov	sp, r7
 676              	.LCFI4:
 677              		.cfi_def_cfa_register 13
 678              		@ sp needed
 679 0230 80BC     		pop	{r7}
 680              	.LCFI5:
 681              		.cfi_restore 7
 682              		.cfi_def_cfa_offset 0
 683 0232 7047     		bx	lr
 684              	.L36:
 685              		.align	2
 686              	.L35:
 687 0234 00000000 		.word	switch_submode
 688 0238 00000000 		.word	Target_Run_Temp
 689 023c 00000000 		.word	Target_Run_Time
 690 0240 00000000 		.word	Target_Idle_Temp
 691 0244 C0D40100 		.word	120000
 692 0248 00000000 		.word	switch_trg_temp
 693 024c 00000000 		.word	switch_trg_time
 694 0250 00000000 		.word	switch_idle_temp
 695              		.cfi_endproc
 696              	.LFE66:
ARM GAS  C:\Users\jisu8\AppData\Local\Temp\ccEFlPfe.s 			page 16


 698              		.section	.text.Pwm_Control,"ax",%progbits
 699              		.align	1
 700              		.syntax unified
 701              		.thumb
 702              		.thumb_func
 704              	Pwm_Control:
 705              	.LFB67:
 184:Core/Src/pwm.c **** static void Pwm_Control(void)
 185:Core/Src/pwm.c **** {
 706              		.loc 1 185 1
 707              		.cfi_startproc
 708              		@ args = 0, pretend = 0, frame = 8
 709              		@ frame_needed = 1, uses_anonymous_args = 0
 710 0000 80B5     		push	{r7, lr}
 711              	.LCFI6:
 712              		.cfi_def_cfa_offset 8
 713              		.cfi_offset 7, -8
 714              		.cfi_offset 14, -4
 715 0002 82B0     		sub	sp, sp, #8
 716              	.LCFI7:
 717              		.cfi_def_cfa_offset 16
 718 0004 00AF     		add	r7, sp, #0
 719              	.LCFI8:
 720              		.cfi_def_cfa_register 7
 186:Core/Src/pwm.c ****     sint16 tempLoc;
 187:Core/Src/pwm.c ****     sint16 TrgTempLoc;
 188:Core/Src/pwm.c ****     static uint8 first_status;
 189:Core/Src/pwm.c ****     if(first_target_flag == PWM_SUBMODE_TARGET_ON)
 721              		.loc 1 189 26
 722 0006 714B     		ldr	r3, .L52
 723 0008 1B78     		ldrb	r3, [r3]	@ zero_extendqisi2
 724              		.loc 1 189 7
 725 000a 012B     		cmp	r3, #1
 726 000c 05D1     		bne	.L38
 190:Core/Src/pwm.c ****     {
 191:Core/Src/pwm.c ****         first_status = 0;
 727              		.loc 1 191 22
 728 000e 704B     		ldr	r3, .L52+4
 729 0010 0022     		movs	r2, #0
 730 0012 1A70     		strb	r2, [r3]
 192:Core/Src/pwm.c ****         first_target_flag = PWM_SUBMODE_TARGET_OFF;
 731              		.loc 1 192 27
 732 0014 6D4B     		ldr	r3, .L52
 733 0016 0022     		movs	r2, #0
 734 0018 1A70     		strb	r2, [r3]
 735              	.L38:
 193:Core/Src/pwm.c ****     }
 194:Core/Src/pwm.c ****     tempLoc = Temp_Adc_TP;
 736              		.loc 1 194 13
 737 001a 6E4B     		ldr	r3, .L52+8
 738 001c 1B88     		ldrh	r3, [r3]	@ movhi
 739 001e BB80     		strh	r3, [r7, #4]	@ movhi
 195:Core/Src/pwm.c ****     if((Target_Run_Time>0)&&(tempLoc>(Target_Run_Temp-5))&&(tempLoc<(Target_Run_Temp+5)))
 740              		.loc 1 195 24
 741 0020 6D4B     		ldr	r3, .L52+12
 742 0022 1B68     		ldr	r3, [r3]
 743              		.loc 1 195 7
ARM GAS  C:\Users\jisu8\AppData\Local\Temp\ccEFlPfe.s 			page 17


 744 0024 002B     		cmp	r3, #0
 745 0026 12DD     		ble	.L39
 746              		.loc 1 195 37 discriminator 1
 747 0028 6C4B     		ldr	r3, .L52+16
 748 002a B3F90030 		ldrsh	r3, [r3]
 749 002e 1A1F     		subs	r2, r3, #4
 750 0030 B7F90430 		ldrsh	r3, [r7, #4]
 751              		.loc 1 195 27 discriminator 1
 752 0034 9A42     		cmp	r2, r3
 753 0036 0ADC     		bgt	.L39
 754              		.loc 1 195 68 discriminator 2
 755 0038 684B     		ldr	r3, .L52+16
 756 003a B3F90030 		ldrsh	r3, [r3]
 757 003e 1A1D     		adds	r2, r3, #4
 758 0040 B7F90430 		ldrsh	r3, [r7, #4]
 759              		.loc 1 195 58 discriminator 2
 760 0044 9A42     		cmp	r2, r3
 761 0046 02DB     		blt	.L39
 196:Core/Src/pwm.c ****     {
 197:Core/Src/pwm.c ****         first_status = 1;
 762              		.loc 1 197 22
 763 0048 614B     		ldr	r3, .L52+4
 764 004a 0122     		movs	r2, #1
 765 004c 1A70     		strb	r2, [r3]
 766              	.L39:
 198:Core/Src/pwm.c ****     }
 199:Core/Src/pwm.c ****     TrgTempLoc = Target_Run_Temp;
 767              		.loc 1 199 16
 768 004e 634B     		ldr	r3, .L52+16
 769 0050 1B88     		ldrh	r3, [r3]	@ movhi
 770 0052 FB80     		strh	r3, [r7, #6]	@ movhi
 200:Core/Src/pwm.c **** 
 201:Core/Src/pwm.c ****     if(first_status == 1)
 771              		.loc 1 201 21
 772 0054 5E4B     		ldr	r3, .L52+4
 773 0056 1B78     		ldrb	r3, [r3]	@ zero_extendqisi2
 774              		.loc 1 201 7
 775 0058 012B     		cmp	r3, #1
 776 005a 0ED1     		bne	.L40
 202:Core/Src/pwm.c ****     {
 203:Core/Src/pwm.c ****         Target_Run_Time--;
 777              		.loc 1 203 24
 778 005c 5E4B     		ldr	r3, .L52+12
 779 005e 1B68     		ldr	r3, [r3]
 780 0060 013B     		subs	r3, r3, #1
 781 0062 5D4A     		ldr	r2, .L52+12
 782 0064 1360     		str	r3, [r2]
 204:Core/Src/pwm.c ****         if(Target_Run_Time<=0)
 783              		.loc 1 204 27
 784 0066 5C4B     		ldr	r3, .L52+12
 785 0068 1B68     		ldr	r3, [r3]
 786              		.loc 1 204 11
 787 006a 002B     		cmp	r3, #0
 788 006c 05DC     		bgt	.L40
 205:Core/Src/pwm.c ****         {
 206:Core/Src/pwm.c ****             Target_Run_Time = 0;
 789              		.loc 1 206 29
ARM GAS  C:\Users\jisu8\AppData\Local\Temp\ccEFlPfe.s 			page 18


 790 006e 5A4B     		ldr	r3, .L52+12
 791 0070 0022     		movs	r2, #0
 792 0072 1A60     		str	r2, [r3]
 207:Core/Src/pwm.c ****             first_status = 2;
 793              		.loc 1 207 26
 794 0074 564B     		ldr	r3, .L52+4
 795 0076 0222     		movs	r2, #2
 796 0078 1A70     		strb	r2, [r3]
 797              	.L40:
 208:Core/Src/pwm.c ****         }
 209:Core/Src/pwm.c ****     }
 210:Core/Src/pwm.c ****     if(first_status == 2)
 798              		.loc 1 210 21
 799 007a 554B     		ldr	r3, .L52+4
 800 007c 1B78     		ldrb	r3, [r3]	@ zero_extendqisi2
 801              		.loc 1 210 7
 802 007e 022B     		cmp	r3, #2
 803 0080 02D1     		bne	.L41
 211:Core/Src/pwm.c ****     {
 212:Core/Src/pwm.c ****         TrgTempLoc = Target_Idle_Temp;
 804              		.loc 1 212 20
 805 0082 574B     		ldr	r3, .L52+20
 806 0084 1B88     		ldrh	r3, [r3]	@ movhi
 807 0086 FB80     		strh	r3, [r7, #6]	@ movhi
 808              	.L41:
 213:Core/Src/pwm.c ****     }
 214:Core/Src/pwm.c **** 
 215:Core/Src/pwm.c ****     if((TrgTempLoc - tempLoc)>0)
 809              		.loc 1 215 20
 810 0088 B7F90620 		ldrsh	r2, [r7, #6]
 811 008c B7F90430 		ldrsh	r3, [r7, #4]
 812 0090 D31A     		subs	r3, r2, r3
 813              		.loc 1 215 7
 814 0092 002B     		cmp	r3, #0
 815 0094 15DD     		ble	.L42
 216:Core/Src/pwm.c ****     {
 217:Core/Src/pwm.c ****         Pwm_Duty_Heater++;
 816              		.loc 1 217 24
 817 0096 534B     		ldr	r3, .L52+24
 818 0098 B3F90030 		ldrsh	r3, [r3]
 819 009c 9BB2     		uxth	r3, r3
 820 009e 0133     		adds	r3, r3, #1
 821 00a0 9BB2     		uxth	r3, r3
 822 00a2 1AB2     		sxth	r2, r3
 823 00a4 4F4B     		ldr	r3, .L52+24
 824 00a6 1A80     		strh	r2, [r3]	@ movhi
 218:Core/Src/pwm.c ****         Pwm_Duty_Peltier--;
 825              		.loc 1 218 25
 826 00a8 4F4B     		ldr	r3, .L52+28
 827 00aa B3F90030 		ldrsh	r3, [r3]
 828 00ae 9BB2     		uxth	r3, r3
 829 00b0 013B     		subs	r3, r3, #1
 830 00b2 9BB2     		uxth	r3, r3
 831 00b4 1AB2     		sxth	r2, r3
 832 00b6 4C4B     		ldr	r3, .L52+28
 833 00b8 1A80     		strh	r2, [r3]	@ movhi
 219:Core/Src/pwm.c ****         Pwm_Led_Mode = PWM_LED_MODE_HEATING;
ARM GAS  C:\Users\jisu8\AppData\Local\Temp\ccEFlPfe.s 			page 19


 834              		.loc 1 219 22
 835 00ba 4C4B     		ldr	r3, .L52+32
 836 00bc 0222     		movs	r2, #2
 837 00be 1A70     		strb	r2, [r3]
 838 00c0 14E0     		b	.L43
 839              	.L42:
 220:Core/Src/pwm.c ****     }
 221:Core/Src/pwm.c ****     else 
 222:Core/Src/pwm.c ****     {
 223:Core/Src/pwm.c ****         Pwm_Duty_Heater--;
 840              		.loc 1 223 24
 841 00c2 484B     		ldr	r3, .L52+24
 842 00c4 B3F90030 		ldrsh	r3, [r3]
 843 00c8 9BB2     		uxth	r3, r3
 844 00ca 013B     		subs	r3, r3, #1
 845 00cc 9BB2     		uxth	r3, r3
 846 00ce 1AB2     		sxth	r2, r3
 847 00d0 444B     		ldr	r3, .L52+24
 848 00d2 1A80     		strh	r2, [r3]	@ movhi
 224:Core/Src/pwm.c ****         Pwm_Duty_Peltier++;
 849              		.loc 1 224 25
 850 00d4 444B     		ldr	r3, .L52+28
 851 00d6 B3F90030 		ldrsh	r3, [r3]
 852 00da 9BB2     		uxth	r3, r3
 853 00dc 0133     		adds	r3, r3, #1
 854 00de 9BB2     		uxth	r3, r3
 855 00e0 1AB2     		sxth	r2, r3
 856 00e2 414B     		ldr	r3, .L52+28
 857 00e4 1A80     		strh	r2, [r3]	@ movhi
 225:Core/Src/pwm.c ****         Pwm_Led_Mode = PWM_LED_MODE_COOLING;
 858              		.loc 1 225 22
 859 00e6 414B     		ldr	r3, .L52+32
 860 00e8 0122     		movs	r2, #1
 861 00ea 1A70     		strb	r2, [r3]
 862              	.L43:
 226:Core/Src/pwm.c ****     }
 227:Core/Src/pwm.c **** 
 228:Core/Src/pwm.c ****     if((TrgTempLoc - tempLoc)>=1)
 863              		.loc 1 228 20
 864 00ec B7F90620 		ldrsh	r2, [r7, #6]
 865 00f0 B7F90430 		ldrsh	r3, [r7, #4]
 866 00f4 D31A     		subs	r3, r2, r3
 867              		.loc 1 228 7
 868 00f6 002B     		cmp	r3, #0
 869 00f8 09DD     		ble	.L44
 229:Core/Src/pwm.c ****     {
 230:Core/Src/pwm.c ****         Pwm_Duty_Fan--;
 870              		.loc 1 230 21
 871 00fa 3D4B     		ldr	r3, .L52+36
 872 00fc B3F90030 		ldrsh	r3, [r3]
 873 0100 9BB2     		uxth	r3, r3
 874 0102 013B     		subs	r3, r3, #1
 875 0104 9BB2     		uxth	r3, r3
 876 0106 1AB2     		sxth	r2, r3
 877 0108 394B     		ldr	r3, .L52+36
 878 010a 1A80     		strh	r2, [r3]	@ movhi
 879 010c 0FE0     		b	.L45
ARM GAS  C:\Users\jisu8\AppData\Local\Temp\ccEFlPfe.s 			page 20


 880              	.L44:
 231:Core/Src/pwm.c ****     }
 232:Core/Src/pwm.c ****     else if((TrgTempLoc - tempLoc)<= -1)
 881              		.loc 1 232 25
 882 010e B7F90620 		ldrsh	r2, [r7, #6]
 883 0112 B7F90430 		ldrsh	r3, [r7, #4]
 884 0116 D31A     		subs	r3, r2, r3
 885              		.loc 1 232 12
 886 0118 002B     		cmp	r3, #0
 887 011a 08DA     		bge	.L45
 233:Core/Src/pwm.c ****     {
 234:Core/Src/pwm.c **** 
 235:Core/Src/pwm.c ****         Pwm_Duty_Fan++;
 888              		.loc 1 235 21
 889 011c 344B     		ldr	r3, .L52+36
 890 011e B3F90030 		ldrsh	r3, [r3]
 891 0122 9BB2     		uxth	r3, r3
 892 0124 0133     		adds	r3, r3, #1
 893 0126 9BB2     		uxth	r3, r3
 894 0128 1AB2     		sxth	r2, r3
 895 012a 314B     		ldr	r3, .L52+36
 896 012c 1A80     		strh	r2, [r3]	@ movhi
 897              	.L45:
 236:Core/Src/pwm.c ****     }
 237:Core/Src/pwm.c ****     else
 238:Core/Src/pwm.c ****     {
 239:Core/Src/pwm.c ****         /* hold fan pwm duty */
 240:Core/Src/pwm.c ****     }
 241:Core/Src/pwm.c **** 
 242:Core/Src/pwm.c ****     if(Pwm_Duty_Heater >= PWM_DUTY_MAX)
 898              		.loc 1 242 24
 899 012e 2D4B     		ldr	r3, .L52+24
 900 0130 B3F90030 		ldrsh	r3, [r3]
 901              		.loc 1 242 7
 902 0134 B3F57A7F 		cmp	r3, #1000
 903 0138 03DB     		blt	.L46
 243:Core/Src/pwm.c ****     {
 244:Core/Src/pwm.c ****         Pwm_Duty_Heater = PWM_DUTY_MAX;
 904              		.loc 1 244 25
 905 013a 2A4B     		ldr	r3, .L52+24
 906 013c 4FF47A72 		mov	r2, #1000
 907 0140 1A80     		strh	r2, [r3]	@ movhi
 908              	.L46:
 245:Core/Src/pwm.c ****     }
 246:Core/Src/pwm.c ****     if(Pwm_Duty_Heater <= PWM_DUTY_MIN)
 909              		.loc 1 246 24
 910 0142 284B     		ldr	r3, .L52+24
 911 0144 B3F90030 		ldrsh	r3, [r3]
 912              		.loc 1 246 7
 913 0148 002B     		cmp	r3, #0
 914 014a 02DC     		bgt	.L47
 247:Core/Src/pwm.c ****     {
 248:Core/Src/pwm.c ****         Pwm_Duty_Heater = PWM_DUTY_MIN;
 915              		.loc 1 248 25
 916 014c 254B     		ldr	r3, .L52+24
 917 014e 0022     		movs	r2, #0
 918 0150 1A80     		strh	r2, [r3]	@ movhi
ARM GAS  C:\Users\jisu8\AppData\Local\Temp\ccEFlPfe.s 			page 21


 919              	.L47:
 249:Core/Src/pwm.c ****     }
 250:Core/Src/pwm.c **** 
 251:Core/Src/pwm.c ****     if(Pwm_Duty_Peltier >= PWM_DUTY_MAX)
 920              		.loc 1 251 25
 921 0152 254B     		ldr	r3, .L52+28
 922 0154 B3F90030 		ldrsh	r3, [r3]
 923              		.loc 1 251 7
 924 0158 B3F57A7F 		cmp	r3, #1000
 925 015c 03DB     		blt	.L48
 252:Core/Src/pwm.c ****     {
 253:Core/Src/pwm.c ****         Pwm_Duty_Peltier = PWM_DUTY_MAX;
 926              		.loc 1 253 26
 927 015e 224B     		ldr	r3, .L52+28
 928 0160 4FF47A72 		mov	r2, #1000
 929 0164 1A80     		strh	r2, [r3]	@ movhi
 930              	.L48:
 254:Core/Src/pwm.c ****     }
 255:Core/Src/pwm.c ****     if(Pwm_Duty_Peltier <= PWM_DUTY_MIN)
 931              		.loc 1 255 25
 932 0166 204B     		ldr	r3, .L52+28
 933 0168 B3F90030 		ldrsh	r3, [r3]
 934              		.loc 1 255 7
 935 016c 002B     		cmp	r3, #0
 936 016e 02DC     		bgt	.L49
 256:Core/Src/pwm.c ****     {
 257:Core/Src/pwm.c ****         Pwm_Duty_Peltier = PWM_DUTY_MIN;
 937              		.loc 1 257 26
 938 0170 1D4B     		ldr	r3, .L52+28
 939 0172 0022     		movs	r2, #0
 940 0174 1A80     		strh	r2, [r3]	@ movhi
 941              	.L49:
 258:Core/Src/pwm.c ****     }
 259:Core/Src/pwm.c **** 
 260:Core/Src/pwm.c ****     if(Pwm_Duty_Fan >= PWM_DUTY_MAX)
 942              		.loc 1 260 21
 943 0176 1E4B     		ldr	r3, .L52+36
 944 0178 B3F90030 		ldrsh	r3, [r3]
 945              		.loc 1 260 7
 946 017c B3F57A7F 		cmp	r3, #1000
 947 0180 03DB     		blt	.L50
 261:Core/Src/pwm.c ****     {
 262:Core/Src/pwm.c ****         Pwm_Duty_Fan = PWM_DUTY_MAX;
 948              		.loc 1 262 22
 949 0182 1B4B     		ldr	r3, .L52+36
 950 0184 4FF47A72 		mov	r2, #1000
 951 0188 1A80     		strh	r2, [r3]	@ movhi
 952              	.L50:
 263:Core/Src/pwm.c ****     }
 264:Core/Src/pwm.c ****     if(Pwm_Duty_Fan <= PWM_DUTY_MIN)
 953              		.loc 1 264 21
 954 018a 194B     		ldr	r3, .L52+36
 955 018c B3F90030 		ldrsh	r3, [r3]
 956              		.loc 1 264 7
 957 0190 002B     		cmp	r3, #0
 958 0192 02DC     		bgt	.L51
 265:Core/Src/pwm.c ****     {
ARM GAS  C:\Users\jisu8\AppData\Local\Temp\ccEFlPfe.s 			page 22


 266:Core/Src/pwm.c ****         Pwm_Duty_Fan = PWM_DUTY_MIN;
 959              		.loc 1 266 22
 960 0194 164B     		ldr	r3, .L52+36
 961 0196 0022     		movs	r2, #0
 962 0198 1A80     		strh	r2, [r3]	@ movhi
 963              	.L51:
 267:Core/Src/pwm.c ****     }
 268:Core/Src/pwm.c **** 
 269:Core/Src/pwm.c ****     Pwm_Heater_Set_Duty(Pwm_Duty_Heater);
 964              		.loc 1 269 5
 965 019a 124B     		ldr	r3, .L52+24
 966 019c B3F90030 		ldrsh	r3, [r3]
 967 01a0 9BB2     		uxth	r3, r3
 968 01a2 1846     		mov	r0, r3
 969 01a4 FFF7FEFF 		bl	Pwm_Heater_Set_Duty
 270:Core/Src/pwm.c ****     Pwm_Peltier_Set_Duty(Pwm_Duty_Peltier);
 970              		.loc 1 270 5
 971 01a8 0F4B     		ldr	r3, .L52+28
 972 01aa B3F90030 		ldrsh	r3, [r3]
 973 01ae 9BB2     		uxth	r3, r3
 974 01b0 1846     		mov	r0, r3
 975 01b2 FFF7FEFF 		bl	Pwm_Peltier_Set_Duty
 271:Core/Src/pwm.c ****     Pwm_Fan_Set_Duty(Pwm_Duty_Fan);
 976              		.loc 1 271 5
 977 01b6 0E4B     		ldr	r3, .L52+36
 978 01b8 B3F90030 		ldrsh	r3, [r3]
 979 01bc 9BB2     		uxth	r3, r3
 980 01be 1846     		mov	r0, r3
 981 01c0 FFF7FEFF 		bl	Pwm_Fan_Set_Duty
 272:Core/Src/pwm.c **** }
 982              		.loc 1 272 1
 983 01c4 00BF     		nop
 984 01c6 0837     		adds	r7, r7, #8
 985              	.LCFI9:
 986              		.cfi_def_cfa_offset 8
 987 01c8 BD46     		mov	sp, r7
 988              	.LCFI10:
 989              		.cfi_def_cfa_register 13
 990              		@ sp needed
 991 01ca 80BD     		pop	{r7, pc}
 992              	.L53:
 993              		.align	2
 994              	.L52:
 995 01cc 00000000 		.word	first_target_flag
 996 01d0 00000000 		.word	first_status.0
 997 01d4 00000000 		.word	Temp_Adc_TP
 998 01d8 00000000 		.word	Target_Run_Time
 999 01dc 00000000 		.word	Target_Run_Temp
 1000 01e0 00000000 		.word	Target_Idle_Temp
 1001 01e4 00000000 		.word	Pwm_Duty_Heater
 1002 01e8 00000000 		.word	Pwm_Duty_Peltier
 1003 01ec 00000000 		.word	Pwm_Led_Mode
 1004 01f0 00000000 		.word	Pwm_Duty_Fan
 1005              		.cfi_endproc
 1006              	.LFE67:
 1008              		.section	.text.Pwm_Peltier_Set_Duty,"ax",%progbits
 1009              		.align	1
ARM GAS  C:\Users\jisu8\AppData\Local\Temp\ccEFlPfe.s 			page 23


 1010              		.syntax unified
 1011              		.thumb
 1012              		.thumb_func
 1014              	Pwm_Peltier_Set_Duty:
 1015              	.LFB68:
 273:Core/Src/pwm.c **** 
 274:Core/Src/pwm.c **** static void Pwm_Peltier_Set_Duty(uint16 duty)
 275:Core/Src/pwm.c **** {
 1016              		.loc 1 275 1
 1017              		.cfi_startproc
 1018              		@ args = 0, pretend = 0, frame = 8
 1019              		@ frame_needed = 1, uses_anonymous_args = 0
 1020              		@ link register save eliminated.
 1021 0000 80B4     		push	{r7}
 1022              	.LCFI11:
 1023              		.cfi_def_cfa_offset 4
 1024              		.cfi_offset 7, -4
 1025 0002 83B0     		sub	sp, sp, #12
 1026              	.LCFI12:
 1027              		.cfi_def_cfa_offset 16
 1028 0004 00AF     		add	r7, sp, #0
 1029              	.LCFI13:
 1030              		.cfi_def_cfa_register 7
 1031 0006 0346     		mov	r3, r0
 1032 0008 FB80     		strh	r3, [r7, #6]	@ movhi
 276:Core/Src/pwm.c ****     /* Resolution : 0.1[%] */
 277:Core/Src/pwm.c ****     PWM_TIM_MODULE_PELTIER-> PWM_TIM_CH_PELTIER = duty;
 1033              		.loc 1 277 27
 1034 000a 044A     		ldr	r2, .L55
 1035              		.loc 1 277 49
 1036 000c FB88     		ldrh	r3, [r7, #6]
 1037 000e 9363     		str	r3, [r2, #56]
 278:Core/Src/pwm.c **** }
 1038              		.loc 1 278 1
 1039 0010 00BF     		nop
 1040 0012 0C37     		adds	r7, r7, #12
 1041              	.LCFI14:
 1042              		.cfi_def_cfa_offset 4
 1043 0014 BD46     		mov	sp, r7
 1044              	.LCFI15:
 1045              		.cfi_def_cfa_register 13
 1046              		@ sp needed
 1047 0016 80BC     		pop	{r7}
 1048              	.LCFI16:
 1049              		.cfi_restore 7
 1050              		.cfi_def_cfa_offset 0
 1051 0018 7047     		bx	lr
 1052              	.L56:
 1053 001a 00BF     		.align	2
 1054              	.L55:
 1055 001c 00040040 		.word	1073742848
 1056              		.cfi_endproc
 1057              	.LFE68:
 1059              		.section	.text.Pwm_Heater_Set_Duty,"ax",%progbits
 1060              		.align	1
 1061              		.syntax unified
 1062              		.thumb
ARM GAS  C:\Users\jisu8\AppData\Local\Temp\ccEFlPfe.s 			page 24


 1063              		.thumb_func
 1065              	Pwm_Heater_Set_Duty:
 1066              	.LFB69:
 279:Core/Src/pwm.c **** 
 280:Core/Src/pwm.c **** static void Pwm_Heater_Set_Duty(uint16 duty)
 281:Core/Src/pwm.c **** {
 1067              		.loc 1 281 1
 1068              		.cfi_startproc
 1069              		@ args = 0, pretend = 0, frame = 8
 1070              		@ frame_needed = 1, uses_anonymous_args = 0
 1071              		@ link register save eliminated.
 1072 0000 80B4     		push	{r7}
 1073              	.LCFI17:
 1074              		.cfi_def_cfa_offset 4
 1075              		.cfi_offset 7, -4
 1076 0002 83B0     		sub	sp, sp, #12
 1077              	.LCFI18:
 1078              		.cfi_def_cfa_offset 16
 1079 0004 00AF     		add	r7, sp, #0
 1080              	.LCFI19:
 1081              		.cfi_def_cfa_register 7
 1082 0006 0346     		mov	r3, r0
 1083 0008 FB80     		strh	r3, [r7, #6]	@ movhi
 282:Core/Src/pwm.c ****     /* Resolution : 0.1[%] */
 283:Core/Src/pwm.c ****     PWM_TIM_MODULE_HEATER-> PWM_TIM_CH_HEATER = duty;
 1084              		.loc 1 283 26
 1085 000a 044A     		ldr	r2, .L58
 1086              		.loc 1 283 47
 1087 000c FB88     		ldrh	r3, [r7, #6]
 1088 000e 5363     		str	r3, [r2, #52]
 284:Core/Src/pwm.c **** }
 1089              		.loc 1 284 1
 1090 0010 00BF     		nop
 1091 0012 0C37     		adds	r7, r7, #12
 1092              	.LCFI20:
 1093              		.cfi_def_cfa_offset 4
 1094 0014 BD46     		mov	sp, r7
 1095              	.LCFI21:
 1096              		.cfi_def_cfa_register 13
 1097              		@ sp needed
 1098 0016 80BC     		pop	{r7}
 1099              	.LCFI22:
 1100              		.cfi_restore 7
 1101              		.cfi_def_cfa_offset 0
 1102 0018 7047     		bx	lr
 1103              	.L59:
 1104 001a 00BF     		.align	2
 1105              	.L58:
 1106 001c 00040040 		.word	1073742848
 1107              		.cfi_endproc
 1108              	.LFE69:
 1110              		.section	.text.Pwm_Servo_Set_Duty,"ax",%progbits
 1111              		.align	1
 1112              		.syntax unified
 1113              		.thumb
 1114              		.thumb_func
 1116              	Pwm_Servo_Set_Duty:
ARM GAS  C:\Users\jisu8\AppData\Local\Temp\ccEFlPfe.s 			page 25


 1117              	.LFB70:
 285:Core/Src/pwm.c **** 
 286:Core/Src/pwm.c **** static void Pwm_Servo_Set_Duty(uint16 duty)
 287:Core/Src/pwm.c **** {
 1118              		.loc 1 287 1
 1119              		.cfi_startproc
 1120              		@ args = 0, pretend = 0, frame = 8
 1121              		@ frame_needed = 1, uses_anonymous_args = 0
 1122              		@ link register save eliminated.
 1123 0000 80B4     		push	{r7}
 1124              	.LCFI23:
 1125              		.cfi_def_cfa_offset 4
 1126              		.cfi_offset 7, -4
 1127 0002 83B0     		sub	sp, sp, #12
 1128              	.LCFI24:
 1129              		.cfi_def_cfa_offset 16
 1130 0004 00AF     		add	r7, sp, #0
 1131              	.LCFI25:
 1132              		.cfi_def_cfa_register 7
 1133 0006 0346     		mov	r3, r0
 1134 0008 FB80     		strh	r3, [r7, #6]	@ movhi
 288:Core/Src/pwm.c ****     /* Resolution : 0.1[%] */
 289:Core/Src/pwm.c ****     PWM_TIM_MODULE_SERVO-> PWM_TIM_CH_SERVO = duty;
 1135              		.loc 1 289 25
 1136 000a 044A     		ldr	r2, .L61
 1137              		.loc 1 289 45
 1138 000c FB88     		ldrh	r3, [r7, #6]
 1139 000e D363     		str	r3, [r2, #60]
 290:Core/Src/pwm.c **** }
 1140              		.loc 1 290 1
 1141 0010 00BF     		nop
 1142 0012 0C37     		adds	r7, r7, #12
 1143              	.LCFI26:
 1144              		.cfi_def_cfa_offset 4
 1145 0014 BD46     		mov	sp, r7
 1146              	.LCFI27:
 1147              		.cfi_def_cfa_register 13
 1148              		@ sp needed
 1149 0016 80BC     		pop	{r7}
 1150              	.LCFI28:
 1151              		.cfi_restore 7
 1152              		.cfi_def_cfa_offset 0
 1153 0018 7047     		bx	lr
 1154              	.L62:
 1155 001a 00BF     		.align	2
 1156              	.L61:
 1157 001c 002C0140 		.word	1073818624
 1158              		.cfi_endproc
 1159              	.LFE70:
 1161              		.section	.text.Pwm_Fan_Set_Duty,"ax",%progbits
 1162              		.align	1
 1163              		.syntax unified
 1164              		.thumb
 1165              		.thumb_func
 1167              	Pwm_Fan_Set_Duty:
 1168              	.LFB71:
 291:Core/Src/pwm.c **** 
ARM GAS  C:\Users\jisu8\AppData\Local\Temp\ccEFlPfe.s 			page 26


 292:Core/Src/pwm.c **** static void Pwm_Fan_Set_Duty(uint16 duty)
 293:Core/Src/pwm.c **** {
 1169              		.loc 1 293 1
 1170              		.cfi_startproc
 1171              		@ args = 0, pretend = 0, frame = 8
 1172              		@ frame_needed = 1, uses_anonymous_args = 0
 1173              		@ link register save eliminated.
 1174 0000 80B4     		push	{r7}
 1175              	.LCFI29:
 1176              		.cfi_def_cfa_offset 4
 1177              		.cfi_offset 7, -4
 1178 0002 83B0     		sub	sp, sp, #12
 1179              	.LCFI30:
 1180              		.cfi_def_cfa_offset 16
 1181 0004 00AF     		add	r7, sp, #0
 1182              	.LCFI31:
 1183              		.cfi_def_cfa_register 7
 1184 0006 0346     		mov	r3, r0
 1185 0008 FB80     		strh	r3, [r7, #6]	@ movhi
 294:Core/Src/pwm.c ****     /* Resolution : 0.1[%] */
 295:Core/Src/pwm.c ****     PWM_TIM_MIDULE_FAN-> PWM_TIM_CH_FAN = duty;
 1186              		.loc 1 295 23
 1187 000a 044A     		ldr	r2, .L64
 1188              		.loc 1 295 41
 1189 000c FB88     		ldrh	r3, [r7, #6]
 1190 000e 5363     		str	r3, [r2, #52]
 296:Core/Src/pwm.c **** }...
 1191              		.loc 1 296 1
 1192 0010 00BF     		nop
 1193 0012 0C37     		adds	r7, r7, #12
 1194              	.LCFI32:
 1195              		.cfi_def_cfa_offset 4
 1196 0014 BD46     		mov	sp, r7
 1197              	.LCFI33:
 1198              		.cfi_def_cfa_register 13
 1199              		@ sp needed
 1200 0016 80BC     		pop	{r7}
 1201              	.LCFI34:
 1202              		.cfi_restore 7
 1203              		.cfi_def_cfa_offset 0
 1204 0018 7047     		bx	lr
 1205              	.L65:
 1206 001a 00BF     		.align	2
 1207              	.L64:
 1208 001c 002C0140 		.word	1073818624
 1209              		.cfi_endproc
 1210              	.LFE71:
 1212              		.section	.bss.first_status.0,"aw",%nobits
 1215              	first_status.0:
 1216 0000 00       		.space	1
 1217              		.text
 1218              	.Letext0:
 1219              		.file 2 "d:\\3.tools\\arm_gcc_toolchain\\arm-none-eabi\\include\\machine\\_default_types.h"
 1220              		.file 3 "d:\\3.tools\\arm_gcc_toolchain\\arm-none-eabi\\include\\sys\\_stdint.h"
 1221              		.file 4 "Drivers/CMSIS/Device/ST/STM32F1xx/Include/stm32f103xb.h"
 1222              		.file 5 "Core/Inc/vardef.h"
 1223              		.file 6 "Core/Inc/switch.h"
ARM GAS  C:\Users\jisu8\AppData\Local\Temp\ccEFlPfe.s 			page 27


 1224              		.file 7 "Core/Inc/pwm.h"
ARM GAS  C:\Users\jisu8\AppData\Local\Temp\ccEFlPfe.s 			page 28

