ARM GAS  C:\Users\jisu8\AppData\Local\Temp\ccupgUCl.s 			page 1


   1              		.cpu cortex-m3
   2              		.arch armv7-m
   3              		.fpu softvfp
   4              		.eabi_attribute 20, 1
   5              		.eabi_attribute 21, 1
   6              		.eabi_attribute 23, 3
   7              		.eabi_attribute 24, 1
   8              		.eabi_attribute 25, 1
   9              		.eabi_attribute 26, 1
  10              		.eabi_attribute 30, 6
  11              		.eabi_attribute 34, 1
  12              		.eabi_attribute 18, 4
  13              		.file	"startup_stm32f103xb.c"
  14              		.text
  15              	.Ltext0:
  16              		.cfi_sections	.debug_frame
  17              		.section	.text.Reset_Handler,"ax",%progbits
  18              		.align	1
  19              		.global	Reset_Handler
  20              		.syntax unified
  21              		.thumb
  22              		.thumb_func
  24              	Reset_Handler:
  25              	.LFB65:
  26              		.file 1 "startup_stm32f103xb.c"
   1:startup_stm32f103xb.c **** #include "stdint.h"
   2:startup_stm32f103xb.c **** #include "system_stm32f1xx.h"
   3:startup_stm32f103xb.c **** #include "stm32f1xx.h"
   4:startup_stm32f103xb.c **** #include "stm32f1xx_hal_def.h"
   5:startup_stm32f103xb.c **** #include "main.h"
   6:startup_stm32f103xb.c **** #include "os.h"
   7:startup_stm32f103xb.c **** 
   8:startup_stm32f103xb.c **** extern uint32_t _sidata;
   9:startup_stm32f103xb.c **** extern uint32_t _sdata;
  10:startup_stm32f103xb.c **** extern uint32_t _edata;
  11:startup_stm32f103xb.c **** extern uint32_t _sbss;
  12:startup_stm32f103xb.c **** extern uint32_t _ebss;
  13:startup_stm32f103xb.c **** extern uint32_t _estack;
  14:startup_stm32f103xb.c **** 
  15:startup_stm32f103xb.c **** extern void __libc_init_array();
  16:startup_stm32f103xb.c **** 
  17:startup_stm32f103xb.c **** void Reset_Handler()
  18:startup_stm32f103xb.c **** {
  27              		.loc 1 18 1
  28              		.cfi_startproc
  29              		@ args = 0, pretend = 0, frame = 16
  30              		@ frame_needed = 1, uses_anonymous_args = 0
  31 0000 80B5     		push	{r7, lr}
  32              	.LCFI0:
  33              		.cfi_def_cfa_offset 8
  34              		.cfi_offset 7, -8
  35              		.cfi_offset 14, -4
  36 0002 84B0     		sub	sp, sp, #16
  37              	.LCFI1:
  38              		.cfi_def_cfa_offset 24
  39 0004 00AF     		add	r7, sp, #0
  40              	.LCFI2:
ARM GAS  C:\Users\jisu8\AppData\Local\Temp\ccupgUCl.s 			page 2


  41              		.cfi_def_cfa_register 7
  19:startup_stm32f103xb.c ****     uint32_t *dataInit = &_sidata;
  42              		.loc 1 19 15
  43 0006 124B     		ldr	r3, .L7
  44 0008 FB60     		str	r3, [r7, #12]
  20:startup_stm32f103xb.c ****     uint32_t *data = &_sdata;
  45              		.loc 1 20 15
  46 000a 124B     		ldr	r3, .L7+4
  47 000c BB60     		str	r3, [r7, #8]
  21:startup_stm32f103xb.c ****     while(data < &_edata)
  48              		.loc 1 21 10
  49 000e 07E0     		b	.L2
  50              	.L3:
  22:startup_stm32f103xb.c ****     {
  23:startup_stm32f103xb.c ****         *data++ = *dataInit++;
  51              		.loc 1 23 28
  52 0010 FA68     		ldr	r2, [r7, #12]
  53 0012 131D     		adds	r3, r2, #4
  54 0014 FB60     		str	r3, [r7, #12]
  55              		.loc 1 23 14
  56 0016 BB68     		ldr	r3, [r7, #8]
  57 0018 191D     		adds	r1, r3, #4
  58 001a B960     		str	r1, [r7, #8]
  59              		.loc 1 23 19
  60 001c 1268     		ldr	r2, [r2]
  61              		.loc 1 23 17
  62 001e 1A60     		str	r2, [r3]
  63              	.L2:
  21:startup_stm32f103xb.c ****     while(data < &_edata)
  64              		.loc 1 21 10
  65 0020 BB68     		ldr	r3, [r7, #8]
  66 0022 0D4A     		ldr	r2, .L7+8
  67 0024 9342     		cmp	r3, r2
  68 0026 F3D3     		bcc	.L3
  24:startup_stm32f103xb.c ****     }
  25:startup_stm32f103xb.c **** 
  26:startup_stm32f103xb.c ****     uint32_t *bss = &_sbss;
  69              		.loc 1 26 15
  70 0028 0C4B     		ldr	r3, .L7+12
  71 002a 7B60     		str	r3, [r7, #4]
  27:startup_stm32f103xb.c ****     while(bss < &_ebss)
  72              		.loc 1 27 10
  73 002c 04E0     		b	.L4
  74              	.L5:
  28:startup_stm32f103xb.c ****     {
  29:startup_stm32f103xb.c ****         *bss++ = 0;
  75              		.loc 1 29 13
  76 002e 7B68     		ldr	r3, [r7, #4]
  77 0030 1A1D     		adds	r2, r3, #4
  78 0032 7A60     		str	r2, [r7, #4]
  79              		.loc 1 29 16
  80 0034 0022     		movs	r2, #0
  81 0036 1A60     		str	r2, [r3]
  82              	.L4:
  27:startup_stm32f103xb.c ****     while(bss < &_ebss)
  83              		.loc 1 27 10
  84 0038 7B68     		ldr	r3, [r7, #4]
ARM GAS  C:\Users\jisu8\AppData\Local\Temp\ccupgUCl.s 			page 3


  85 003a 094A     		ldr	r2, .L7+16
  86 003c 9342     		cmp	r3, r2
  87 003e F6D3     		bcc	.L5
  30:startup_stm32f103xb.c ****     }
  31:startup_stm32f103xb.c **** 
  32:startup_stm32f103xb.c ****     SystemInit(); 
  88              		.loc 1 32 5
  89 0040 FFF7FEFF 		bl	SystemInit
  33:startup_stm32f103xb.c ****     __libc_init_array();
  90              		.loc 1 33 5
  91 0044 FFF7FEFF 		bl	__libc_init_array
  34:startup_stm32f103xb.c ****     main();
  92              		.loc 1 34 5
  93 0048 FFF7FEFF 		bl	main
  94              	.L6:
  35:startup_stm32f103xb.c **** 
  36:startup_stm32f103xb.c ****     while (1);
  95              		.loc 1 36 11 discriminator 1
  96 004c FEE7     		b	.L6
  97              	.L8:
  98 004e 00BF     		.align	2
  99              	.L7:
 100 0050 00000000 		.word	_sidata
 101 0054 00000000 		.word	_sdata
 102 0058 00000000 		.word	_edata
 103 005c 00000000 		.word	_sbss
 104 0060 00000000 		.word	_ebss
 105              		.cfi_endproc
 106              	.LFE65:
 108              		.section	.text.Default_Handler,"ax",%progbits
 109              		.align	1
 110              		.global	Default_Handler
 111              		.syntax unified
 112              		.thumb
 113              		.thumb_func
 115              	Default_Handler:
 116              	.LFB66:
  37:startup_stm32f103xb.c **** }
  38:startup_stm32f103xb.c **** 
  39:startup_stm32f103xb.c **** void Default_Handler(void)
  40:startup_stm32f103xb.c **** {
 117              		.loc 1 40 1
 118              		.cfi_startproc
 119              		@ args = 0, pretend = 0, frame = 0
 120              		@ frame_needed = 1, uses_anonymous_args = 0
 121              		@ link register save eliminated.
 122 0000 80B4     		push	{r7}
 123              	.LCFI3:
 124              		.cfi_def_cfa_offset 4
 125              		.cfi_offset 7, -4
 126 0002 00AF     		add	r7, sp, #0
 127              	.LCFI4:
 128              		.cfi_def_cfa_register 7
 129              	.L10:
  41:startup_stm32f103xb.c ****     while (1);
 130              		.loc 1 41 11 discriminator 1
 131 0004 FEE7     		b	.L10
ARM GAS  C:\Users\jisu8\AppData\Local\Temp\ccupgUCl.s 			page 4


 132              		.cfi_endproc
 133              	.LFE66:
 135              		.section	.text.TIM2_Handler,"ax",%progbits
 136              		.align	1
 137              		.global	TIM2_Handler
 138              		.syntax unified
 139              		.thumb
 140              		.thumb_func
 142              	TIM2_Handler:
 143              	.LFB67:
  42:startup_stm32f103xb.c **** }
  43:startup_stm32f103xb.c **** 
  44:startup_stm32f103xb.c **** void TIM2_Handler(void)
  45:startup_stm32f103xb.c **** {
 144              		.loc 1 45 1
 145              		.cfi_startproc
 146              		@ args = 0, pretend = 0, frame = 0
 147              		@ frame_needed = 1, uses_anonymous_args = 0
 148 0000 80B5     		push	{r7, lr}
 149              	.LCFI5:
 150              		.cfi_def_cfa_offset 8
 151              		.cfi_offset 7, -8
 152              		.cfi_offset 14, -4
 153 0002 00AF     		add	r7, sp, #0
 154              	.LCFI6:
 155              		.cfi_def_cfa_register 7
  46:startup_stm32f103xb.c ****     HAL_TIM_IRQHandler(&htim2);
 156              		.loc 1 46 5
 157 0004 0248     		ldr	r0, .L12
 158 0006 FFF7FEFF 		bl	HAL_TIM_IRQHandler
  47:startup_stm32f103xb.c **** }
 159              		.loc 1 47 1
 160 000a 00BF     		nop
 161 000c 80BD     		pop	{r7, pc}
 162              	.L13:
 163 000e 00BF     		.align	2
 164              	.L12:
 165 0010 00000000 		.word	htim2
 166              		.cfi_endproc
 167              	.LFE67:
 169              		.section	.text.TIM4_Handler,"ax",%progbits
 170              		.align	1
 171              		.global	TIM4_Handler
 172              		.syntax unified
 173              		.thumb
 174              		.thumb_func
 176              	TIM4_Handler:
 177              	.LFB68:
  48:startup_stm32f103xb.c **** 
  49:startup_stm32f103xb.c **** void TIM4_Handler(void)
  50:startup_stm32f103xb.c **** {
 178              		.loc 1 50 1
 179              		.cfi_startproc
 180              		@ args = 0, pretend = 0, frame = 0
 181              		@ frame_needed = 1, uses_anonymous_args = 0
 182 0000 80B5     		push	{r7, lr}
 183              	.LCFI7:
ARM GAS  C:\Users\jisu8\AppData\Local\Temp\ccupgUCl.s 			page 5


 184              		.cfi_def_cfa_offset 8
 185              		.cfi_offset 7, -8
 186              		.cfi_offset 14, -4
 187 0002 00AF     		add	r7, sp, #0
 188              	.LCFI8:
 189              		.cfi_def_cfa_register 7
  51:startup_stm32f103xb.c ****     HAL_TIM_IRQHandler(&htim4);
 190              		.loc 1 51 5
 191 0004 0248     		ldr	r0, .L15
 192 0006 FFF7FEFF 		bl	HAL_TIM_IRQHandler
  52:startup_stm32f103xb.c **** }
 193              		.loc 1 52 1
 194 000a 00BF     		nop
 195 000c 80BD     		pop	{r7, pc}
 196              	.L16:
 197 000e 00BF     		.align	2
 198              	.L15:
 199 0010 00000000 		.word	htim4
 200              		.cfi_endproc
 201              	.LFE68:
 203              		.section	.text.UART2_Handler,"ax",%progbits
 204              		.align	1
 205              		.global	UART2_Handler
 206              		.syntax unified
 207              		.thumb
 208              		.thumb_func
 210              	UART2_Handler:
 211              	.LFB69:
  53:startup_stm32f103xb.c **** 
  54:startup_stm32f103xb.c **** void UART2_Handler(void)
  55:startup_stm32f103xb.c **** {
 212              		.loc 1 55 1
 213              		.cfi_startproc
 214              		@ args = 0, pretend = 0, frame = 0
 215              		@ frame_needed = 1, uses_anonymous_args = 0
 216 0000 80B5     		push	{r7, lr}
 217              	.LCFI9:
 218              		.cfi_def_cfa_offset 8
 219              		.cfi_offset 7, -8
 220              		.cfi_offset 14, -4
 221 0002 00AF     		add	r7, sp, #0
 222              	.LCFI10:
 223              		.cfi_def_cfa_register 7
  56:startup_stm32f103xb.c ****     HAL_UART_IRQHandler(&huart2);
 224              		.loc 1 56 5
 225 0004 0248     		ldr	r0, .L18
 226 0006 FFF7FEFF 		bl	HAL_UART_IRQHandler
  57:startup_stm32f103xb.c **** }
 227              		.loc 1 57 1
 228 000a 00BF     		nop
 229 000c 80BD     		pop	{r7, pc}
 230              	.L19:
 231 000e 00BF     		.align	2
 232              	.L18:
 233 0010 00000000 		.word	huart2
 234              		.cfi_endproc
 235              	.LFE69:
ARM GAS  C:\Users\jisu8\AppData\Local\Temp\ccupgUCl.s 			page 6


 237              		.section	.text.SystemTick_Handler,"ax",%progbits
 238              		.align	1
 239              		.global	SystemTick_Handler
 240              		.syntax unified
 241              		.thumb
 242              		.thumb_func
 244              	SystemTick_Handler:
 245              	.LFB70:
  58:startup_stm32f103xb.c **** 
  59:startup_stm32f103xb.c **** void SystemTick_Handler(void)
  60:startup_stm32f103xb.c **** {
 246              		.loc 1 60 1
 247              		.cfi_startproc
 248              		@ args = 0, pretend = 0, frame = 0
 249              		@ frame_needed = 1, uses_anonymous_args = 0
 250 0000 80B5     		push	{r7, lr}
 251              	.LCFI11:
 252              		.cfi_def_cfa_offset 8
 253              		.cfi_offset 7, -8
 254              		.cfi_offset 14, -4
 255 0002 00AF     		add	r7, sp, #0
 256              	.LCFI12:
 257              		.cfi_def_cfa_register 7
  61:startup_stm32f103xb.c ****     /* USER CODE BEGIN SysTick_IRQn 0 */
  62:startup_stm32f103xb.c **** 
  63:startup_stm32f103xb.c ****     /* USER CODE END SysTick_IRQn 0 */
  64:startup_stm32f103xb.c ****     HAL_IncTick();
 258              		.loc 1 64 5
 259 0004 FFF7FEFF 		bl	HAL_IncTick
  65:startup_stm32f103xb.c ****     /* USER CODE BEGIN SysTick_IRQn 1 */
  66:startup_stm32f103xb.c ****     Os_Handler_1ms();
 260              		.loc 1 66 5
 261 0008 FFF7FEFF 		bl	Os_Handler_1ms
  67:startup_stm32f103xb.c ****     /* USER CODE END SysTick_IRQn 1 */
  68:startup_stm32f103xb.c **** }
 262              		.loc 1 68 1
 263 000c 00BF     		nop
 264 000e 80BD     		pop	{r7, pc}
 265              		.cfi_endproc
 266              	.LFE70:
 268              		.section	.text.NMI_Handler,"ax",%progbits
 269              		.align	1
 270              		.weak	NMI_Handler
 271              		.syntax unified
 272              		.thumb
 273              		.thumb_func
 275              	NMI_Handler:
 276              	.LFB71:
  69:startup_stm32f103xb.c **** 
  70:startup_stm32f103xb.c **** __weak void NMI_Handler(void)                          {Default_Handler();}
 277              		.loc 1 70 56
 278              		.cfi_startproc
 279              		@ args = 0, pretend = 0, frame = 0
 280              		@ frame_needed = 1, uses_anonymous_args = 0
 281 0000 80B5     		push	{r7, lr}
 282              	.LCFI13:
 283              		.cfi_def_cfa_offset 8
ARM GAS  C:\Users\jisu8\AppData\Local\Temp\ccupgUCl.s 			page 7


 284              		.cfi_offset 7, -8
 285              		.cfi_offset 14, -4
 286 0002 00AF     		add	r7, sp, #0
 287              	.LCFI14:
 288              		.cfi_def_cfa_register 7
 289              		.loc 1 70 57
 290 0004 FFF7FEFF 		bl	Default_Handler
 291              		.loc 1 70 75
 292 0008 00BF     		nop
 293 000a 80BD     		pop	{r7, pc}
 294              		.cfi_endproc
 295              	.LFE71:
 297              		.section	.text.HardFault_Handler,"ax",%progbits
 298              		.align	1
 299              		.weak	HardFault_Handler
 300              		.syntax unified
 301              		.thumb
 302              		.thumb_func
 304              	HardFault_Handler:
 305              	.LFB72:
  71:startup_stm32f103xb.c **** __weak void HardFault_Handler(void)                    {Default_Handler();}
 306              		.loc 1 71 56
 307              		.cfi_startproc
 308              		@ args = 0, pretend = 0, frame = 0
 309              		@ frame_needed = 1, uses_anonymous_args = 0
 310 0000 80B5     		push	{r7, lr}
 311              	.LCFI15:
 312              		.cfi_def_cfa_offset 8
 313              		.cfi_offset 7, -8
 314              		.cfi_offset 14, -4
 315 0002 00AF     		add	r7, sp, #0
 316              	.LCFI16:
 317              		.cfi_def_cfa_register 7
 318              		.loc 1 71 57
 319 0004 FFF7FEFF 		bl	Default_Handler
 320              		.loc 1 71 75
 321 0008 00BF     		nop
 322 000a 80BD     		pop	{r7, pc}
 323              		.cfi_endproc
 324              	.LFE72:
 326              		.section	.text.MemManage_Handler,"ax",%progbits
 327              		.align	1
 328              		.weak	MemManage_Handler
 329              		.syntax unified
 330              		.thumb
 331              		.thumb_func
 333              	MemManage_Handler:
 334              	.LFB73:
  72:startup_stm32f103xb.c **** __weak void MemManage_Handler(void)                    {Default_Handler();}
 335              		.loc 1 72 56
 336              		.cfi_startproc
 337              		@ args = 0, pretend = 0, frame = 0
 338              		@ frame_needed = 1, uses_anonymous_args = 0
 339 0000 80B5     		push	{r7, lr}
 340              	.LCFI17:
 341              		.cfi_def_cfa_offset 8
 342              		.cfi_offset 7, -8
ARM GAS  C:\Users\jisu8\AppData\Local\Temp\ccupgUCl.s 			page 8


 343              		.cfi_offset 14, -4
 344 0002 00AF     		add	r7, sp, #0
 345              	.LCFI18:
 346              		.cfi_def_cfa_register 7
 347              		.loc 1 72 57
 348 0004 FFF7FEFF 		bl	Default_Handler
 349              		.loc 1 72 75
 350 0008 00BF     		nop
 351 000a 80BD     		pop	{r7, pc}
 352              		.cfi_endproc
 353              	.LFE73:
 355              		.section	.text.BusFault_Handler,"ax",%progbits
 356              		.align	1
 357              		.weak	BusFault_Handler
 358              		.syntax unified
 359              		.thumb
 360              		.thumb_func
 362              	BusFault_Handler:
 363              	.LFB74:
  73:startup_stm32f103xb.c **** __weak void BusFault_Handler(void)                     {Default_Handler();}
 364              		.loc 1 73 56
 365              		.cfi_startproc
 366              		@ args = 0, pretend = 0, frame = 0
 367              		@ frame_needed = 1, uses_anonymous_args = 0
 368 0000 80B5     		push	{r7, lr}
 369              	.LCFI19:
 370              		.cfi_def_cfa_offset 8
 371              		.cfi_offset 7, -8
 372              		.cfi_offset 14, -4
 373 0002 00AF     		add	r7, sp, #0
 374              	.LCFI20:
 375              		.cfi_def_cfa_register 7
 376              		.loc 1 73 57
 377 0004 FFF7FEFF 		bl	Default_Handler
 378              		.loc 1 73 75
 379 0008 00BF     		nop
 380 000a 80BD     		pop	{r7, pc}
 381              		.cfi_endproc
 382              	.LFE74:
 384              		.section	.text.UsageFault_Handler,"ax",%progbits
 385              		.align	1
 386              		.weak	UsageFault_Handler
 387              		.syntax unified
 388              		.thumb
 389              		.thumb_func
 391              	UsageFault_Handler:
 392              	.LFB75:
  74:startup_stm32f103xb.c **** __weak void UsageFault_Handler(void)                   {Default_Handler();}
 393              		.loc 1 74 56
 394              		.cfi_startproc
 395              		@ args = 0, pretend = 0, frame = 0
 396              		@ frame_needed = 1, uses_anonymous_args = 0
 397 0000 80B5     		push	{r7, lr}
 398              	.LCFI21:
 399              		.cfi_def_cfa_offset 8
 400              		.cfi_offset 7, -8
 401              		.cfi_offset 14, -4
ARM GAS  C:\Users\jisu8\AppData\Local\Temp\ccupgUCl.s 			page 9


 402 0002 00AF     		add	r7, sp, #0
 403              	.LCFI22:
 404              		.cfi_def_cfa_register 7
 405              		.loc 1 74 57
 406 0004 FFF7FEFF 		bl	Default_Handler
 407              		.loc 1 74 75
 408 0008 00BF     		nop
 409 000a 80BD     		pop	{r7, pc}
 410              		.cfi_endproc
 411              	.LFE75:
 413              		.section	.text.SVC_Handler,"ax",%progbits
 414              		.align	1
 415              		.weak	SVC_Handler
 416              		.syntax unified
 417              		.thumb
 418              		.thumb_func
 420              	SVC_Handler:
 421              	.LFB76:
  75:startup_stm32f103xb.c **** __weak void SVC_Handler(void)                          {Default_Handler();}
 422              		.loc 1 75 56
 423              		.cfi_startproc
 424              		@ args = 0, pretend = 0, frame = 0
 425              		@ frame_needed = 1, uses_anonymous_args = 0
 426 0000 80B5     		push	{r7, lr}
 427              	.LCFI23:
 428              		.cfi_def_cfa_offset 8
 429              		.cfi_offset 7, -8
 430              		.cfi_offset 14, -4
 431 0002 00AF     		add	r7, sp, #0
 432              	.LCFI24:
 433              		.cfi_def_cfa_register 7
 434              		.loc 1 75 57
 435 0004 FFF7FEFF 		bl	Default_Handler
 436              		.loc 1 75 75
 437 0008 00BF     		nop
 438 000a 80BD     		pop	{r7, pc}
 439              		.cfi_endproc
 440              	.LFE76:
 442              		.section	.text.DebugMon_Handler,"ax",%progbits
 443              		.align	1
 444              		.weak	DebugMon_Handler
 445              		.syntax unified
 446              		.thumb
 447              		.thumb_func
 449              	DebugMon_Handler:
 450              	.LFB77:
  76:startup_stm32f103xb.c **** __weak void DebugMon_Handler(void)                     {Default_Handler();}
 451              		.loc 1 76 56
 452              		.cfi_startproc
 453              		@ args = 0, pretend = 0, frame = 0
 454              		@ frame_needed = 1, uses_anonymous_args = 0
 455 0000 80B5     		push	{r7, lr}
 456              	.LCFI25:
 457              		.cfi_def_cfa_offset 8
 458              		.cfi_offset 7, -8
 459              		.cfi_offset 14, -4
 460 0002 00AF     		add	r7, sp, #0
ARM GAS  C:\Users\jisu8\AppData\Local\Temp\ccupgUCl.s 			page 10


 461              	.LCFI26:
 462              		.cfi_def_cfa_register 7
 463              		.loc 1 76 57
 464 0004 FFF7FEFF 		bl	Default_Handler
 465              		.loc 1 76 75
 466 0008 00BF     		nop
 467 000a 80BD     		pop	{r7, pc}
 468              		.cfi_endproc
 469              	.LFE77:
 471              		.section	.text.PendSV_Handler,"ax",%progbits
 472              		.align	1
 473              		.weak	PendSV_Handler
 474              		.syntax unified
 475              		.thumb
 476              		.thumb_func
 478              	PendSV_Handler:
 479              	.LFB78:
  77:startup_stm32f103xb.c **** __weak void PendSV_Handler(void)                       {Default_Handler();}
 480              		.loc 1 77 56
 481              		.cfi_startproc
 482              		@ args = 0, pretend = 0, frame = 0
 483              		@ frame_needed = 1, uses_anonymous_args = 0
 484 0000 80B5     		push	{r7, lr}
 485              	.LCFI27:
 486              		.cfi_def_cfa_offset 8
 487              		.cfi_offset 7, -8
 488              		.cfi_offset 14, -4
 489 0002 00AF     		add	r7, sp, #0
 490              	.LCFI28:
 491              		.cfi_def_cfa_register 7
 492              		.loc 1 77 57
 493 0004 FFF7FEFF 		bl	Default_Handler
 494              		.loc 1 77 75
 495 0008 00BF     		nop
 496 000a 80BD     		pop	{r7, pc}
 497              		.cfi_endproc
 498              	.LFE78:
 500              		.section	.text.SysTick_Handler,"ax",%progbits
 501              		.align	1
 502              		.weak	SysTick_Handler
 503              		.syntax unified
 504              		.thumb
 505              		.thumb_func
 507              	SysTick_Handler:
 508              	.LFB79:
  78:startup_stm32f103xb.c **** __weak void SysTick_Handler(void)                      {SystemTick_Handler();}
 509              		.loc 1 78 56
 510              		.cfi_startproc
 511              		@ args = 0, pretend = 0, frame = 0
 512              		@ frame_needed = 1, uses_anonymous_args = 0
 513 0000 80B5     		push	{r7, lr}
 514              	.LCFI29:
 515              		.cfi_def_cfa_offset 8
 516              		.cfi_offset 7, -8
 517              		.cfi_offset 14, -4
 518 0002 00AF     		add	r7, sp, #0
 519              	.LCFI30:
ARM GAS  C:\Users\jisu8\AppData\Local\Temp\ccupgUCl.s 			page 11


 520              		.cfi_def_cfa_register 7
 521              		.loc 1 78 57
 522 0004 FFF7FEFF 		bl	SystemTick_Handler
 523              		.loc 1 78 78
 524 0008 00BF     		nop
 525 000a 80BD     		pop	{r7, pc}
 526              		.cfi_endproc
 527              	.LFE79:
 529              		.section	.text.WWDG_IRQHandler,"ax",%progbits
 530              		.align	1
 531              		.weak	WWDG_IRQHandler
 532              		.syntax unified
 533              		.thumb
 534              		.thumb_func
 536              	WWDG_IRQHandler:
 537              	.LFB80:
  79:startup_stm32f103xb.c **** __weak void WWDG_IRQHandler(void)                      {Default_Handler();}  
 538              		.loc 1 79 56
 539              		.cfi_startproc
 540              		@ args = 0, pretend = 0, frame = 0
 541              		@ frame_needed = 1, uses_anonymous_args = 0
 542 0000 80B5     		push	{r7, lr}
 543              	.LCFI31:
 544              		.cfi_def_cfa_offset 8
 545              		.cfi_offset 7, -8
 546              		.cfi_offset 14, -4
 547 0002 00AF     		add	r7, sp, #0
 548              	.LCFI32:
 549              		.cfi_def_cfa_register 7
 550              		.loc 1 79 57
 551 0004 FFF7FEFF 		bl	Default_Handler
 552              		.loc 1 79 75
 553 0008 00BF     		nop
 554 000a 80BD     		pop	{r7, pc}
 555              		.cfi_endproc
 556              	.LFE80:
 558              		.section	.text.PVD_IRQHandler,"ax",%progbits
 559              		.align	1
 560              		.weak	PVD_IRQHandler
 561              		.syntax unified
 562              		.thumb
 563              		.thumb_func
 565              	PVD_IRQHandler:
 566              	.LFB81:
  80:startup_stm32f103xb.c **** __weak void PVD_IRQHandler(void)                       {Default_Handler();} 
 567              		.loc 1 80 56
 568              		.cfi_startproc
 569              		@ args = 0, pretend = 0, frame = 0
 570              		@ frame_needed = 1, uses_anonymous_args = 0
 571 0000 80B5     		push	{r7, lr}
 572              	.LCFI33:
 573              		.cfi_def_cfa_offset 8
 574              		.cfi_offset 7, -8
 575              		.cfi_offset 14, -4
 576 0002 00AF     		add	r7, sp, #0
 577              	.LCFI34:
 578              		.cfi_def_cfa_register 7
ARM GAS  C:\Users\jisu8\AppData\Local\Temp\ccupgUCl.s 			page 12


 579              		.loc 1 80 57
 580 0004 FFF7FEFF 		bl	Default_Handler
 581              		.loc 1 80 75
 582 0008 00BF     		nop
 583 000a 80BD     		pop	{r7, pc}
 584              		.cfi_endproc
 585              	.LFE81:
 587              		.section	.text.TAMPER_IRQHandler,"ax",%progbits
 588              		.align	1
 589              		.weak	TAMPER_IRQHandler
 590              		.syntax unified
 591              		.thumb
 592              		.thumb_func
 594              	TAMPER_IRQHandler:
 595              	.LFB82:
  81:startup_stm32f103xb.c **** __weak void TAMPER_IRQHandler(void)                    {Default_Handler();}             
 596              		.loc 1 81 56
 597              		.cfi_startproc
 598              		@ args = 0, pretend = 0, frame = 0
 599              		@ frame_needed = 1, uses_anonymous_args = 0
 600 0000 80B5     		push	{r7, lr}
 601              	.LCFI35:
 602              		.cfi_def_cfa_offset 8
 603              		.cfi_offset 7, -8
 604              		.cfi_offset 14, -4
 605 0002 00AF     		add	r7, sp, #0
 606              	.LCFI36:
 607              		.cfi_def_cfa_register 7
 608              		.loc 1 81 57
 609 0004 FFF7FEFF 		bl	Default_Handler
 610              		.loc 1 81 75
 611 0008 00BF     		nop
 612 000a 80BD     		pop	{r7, pc}
 613              		.cfi_endproc
 614              	.LFE82:
 616              		.section	.text.RTC_IRQHandler,"ax",%progbits
 617              		.align	1
 618              		.weak	RTC_IRQHandler
 619              		.syntax unified
 620              		.thumb
 621              		.thumb_func
 623              	RTC_IRQHandler:
 624              	.LFB83:
  82:startup_stm32f103xb.c **** __weak void RTC_IRQHandler(void)                       {Default_Handler();}            
 625              		.loc 1 82 56
 626              		.cfi_startproc
 627              		@ args = 0, pretend = 0, frame = 0
 628              		@ frame_needed = 1, uses_anonymous_args = 0
 629 0000 80B5     		push	{r7, lr}
 630              	.LCFI37:
 631              		.cfi_def_cfa_offset 8
 632              		.cfi_offset 7, -8
 633              		.cfi_offset 14, -4
 634 0002 00AF     		add	r7, sp, #0
 635              	.LCFI38:
 636              		.cfi_def_cfa_register 7
 637              		.loc 1 82 57
ARM GAS  C:\Users\jisu8\AppData\Local\Temp\ccupgUCl.s 			page 13


 638 0004 FFF7FEFF 		bl	Default_Handler
 639              		.loc 1 82 75
 640 0008 00BF     		nop
 641 000a 80BD     		pop	{r7, pc}
 642              		.cfi_endproc
 643              	.LFE83:
 645              		.section	.text.FLASH_IRQHandler,"ax",%progbits
 646              		.align	1
 647              		.weak	FLASH_IRQHandler
 648              		.syntax unified
 649              		.thumb
 650              		.thumb_func
 652              	FLASH_IRQHandler:
 653              	.LFB84:
  83:startup_stm32f103xb.c **** __weak void FLASH_IRQHandler(void)                     {Default_Handler();}                  
 654              		.loc 1 83 56
 655              		.cfi_startproc
 656              		@ args = 0, pretend = 0, frame = 0
 657              		@ frame_needed = 1, uses_anonymous_args = 0
 658 0000 80B5     		push	{r7, lr}
 659              	.LCFI39:
 660              		.cfi_def_cfa_offset 8
 661              		.cfi_offset 7, -8
 662              		.cfi_offset 14, -4
 663 0002 00AF     		add	r7, sp, #0
 664              	.LCFI40:
 665              		.cfi_def_cfa_register 7
 666              		.loc 1 83 57
 667 0004 FFF7FEFF 		bl	Default_Handler
 668              		.loc 1 83 75
 669 0008 00BF     		nop
 670 000a 80BD     		pop	{r7, pc}
 671              		.cfi_endproc
 672              	.LFE84:
 674              		.section	.text.RCC_IRQHandler,"ax",%progbits
 675              		.align	1
 676              		.weak	RCC_IRQHandler
 677              		.syntax unified
 678              		.thumb
 679              		.thumb_func
 681              	RCC_IRQHandler:
 682              	.LFB85:
  84:startup_stm32f103xb.c **** __weak void RCC_IRQHandler(void)                       {Default_Handler();}
 683              		.loc 1 84 56
 684              		.cfi_startproc
 685              		@ args = 0, pretend = 0, frame = 0
 686              		@ frame_needed = 1, uses_anonymous_args = 0
 687 0000 80B5     		push	{r7, lr}
 688              	.LCFI41:
 689              		.cfi_def_cfa_offset 8
 690              		.cfi_offset 7, -8
 691              		.cfi_offset 14, -4
 692 0002 00AF     		add	r7, sp, #0
 693              	.LCFI42:
 694              		.cfi_def_cfa_register 7
 695              		.loc 1 84 57
 696 0004 FFF7FEFF 		bl	Default_Handler
ARM GAS  C:\Users\jisu8\AppData\Local\Temp\ccupgUCl.s 			page 14


 697              		.loc 1 84 75
 698 0008 00BF     		nop
 699 000a 80BD     		pop	{r7, pc}
 700              		.cfi_endproc
 701              	.LFE85:
 703              		.section	.text.EXTI0_IRQHandler,"ax",%progbits
 704              		.align	1
 705              		.weak	EXTI0_IRQHandler
 706              		.syntax unified
 707              		.thumb
 708              		.thumb_func
 710              	EXTI0_IRQHandler:
 711              	.LFB86:
  85:startup_stm32f103xb.c **** __weak void EXTI0_IRQHandler(void)                     {Default_Handler();}  
 712              		.loc 1 85 56
 713              		.cfi_startproc
 714              		@ args = 0, pretend = 0, frame = 0
 715              		@ frame_needed = 1, uses_anonymous_args = 0
 716 0000 80B5     		push	{r7, lr}
 717              	.LCFI43:
 718              		.cfi_def_cfa_offset 8
 719              		.cfi_offset 7, -8
 720              		.cfi_offset 14, -4
 721 0002 00AF     		add	r7, sp, #0
 722              	.LCFI44:
 723              		.cfi_def_cfa_register 7
 724              		.loc 1 85 57
 725 0004 FFF7FEFF 		bl	Default_Handler
 726              		.loc 1 85 75
 727 0008 00BF     		nop
 728 000a 80BD     		pop	{r7, pc}
 729              		.cfi_endproc
 730              	.LFE86:
 732              		.section	.text.EXTI1_IRQHandler,"ax",%progbits
 733              		.align	1
 734              		.weak	EXTI1_IRQHandler
 735              		.syntax unified
 736              		.thumb
 737              		.thumb_func
 739              	EXTI1_IRQHandler:
 740              	.LFB87:
  86:startup_stm32f103xb.c **** __weak void EXTI1_IRQHandler(void)                     {Default_Handler();}  
 741              		.loc 1 86 56
 742              		.cfi_startproc
 743              		@ args = 0, pretend = 0, frame = 0
 744              		@ frame_needed = 1, uses_anonymous_args = 0
 745 0000 80B5     		push	{r7, lr}
 746              	.LCFI45:
 747              		.cfi_def_cfa_offset 8
 748              		.cfi_offset 7, -8
 749              		.cfi_offset 14, -4
 750 0002 00AF     		add	r7, sp, #0
 751              	.LCFI46:
 752              		.cfi_def_cfa_register 7
 753              		.loc 1 86 57
 754 0004 FFF7FEFF 		bl	Default_Handler
 755              		.loc 1 86 75
ARM GAS  C:\Users\jisu8\AppData\Local\Temp\ccupgUCl.s 			page 15


 756 0008 00BF     		nop
 757 000a 80BD     		pop	{r7, pc}
 758              		.cfi_endproc
 759              	.LFE87:
 761              		.section	.text.EXTI2_IRQHandler,"ax",%progbits
 762              		.align	1
 763              		.weak	EXTI2_IRQHandler
 764              		.syntax unified
 765              		.thumb
 766              		.thumb_func
 768              	EXTI2_IRQHandler:
 769              	.LFB88:
  87:startup_stm32f103xb.c **** __weak void EXTI2_IRQHandler(void)                     {Default_Handler();}  
 770              		.loc 1 87 56
 771              		.cfi_startproc
 772              		@ args = 0, pretend = 0, frame = 0
 773              		@ frame_needed = 1, uses_anonymous_args = 0
 774 0000 80B5     		push	{r7, lr}
 775              	.LCFI47:
 776              		.cfi_def_cfa_offset 8
 777              		.cfi_offset 7, -8
 778              		.cfi_offset 14, -4
 779 0002 00AF     		add	r7, sp, #0
 780              	.LCFI48:
 781              		.cfi_def_cfa_register 7
 782              		.loc 1 87 57
 783 0004 FFF7FEFF 		bl	Default_Handler
 784              		.loc 1 87 75
 785 0008 00BF     		nop
 786 000a 80BD     		pop	{r7, pc}
 787              		.cfi_endproc
 788              	.LFE88:
 790              		.section	.text.EXTI3_IRQHandler,"ax",%progbits
 791              		.align	1
 792              		.weak	EXTI3_IRQHandler
 793              		.syntax unified
 794              		.thumb
 795              		.thumb_func
 797              	EXTI3_IRQHandler:
 798              	.LFB89:
  88:startup_stm32f103xb.c **** __weak void EXTI3_IRQHandler(void)                     {Default_Handler();}  
 799              		.loc 1 88 56
 800              		.cfi_startproc
 801              		@ args = 0, pretend = 0, frame = 0
 802              		@ frame_needed = 1, uses_anonymous_args = 0
 803 0000 80B5     		push	{r7, lr}
 804              	.LCFI49:
 805              		.cfi_def_cfa_offset 8
 806              		.cfi_offset 7, -8
 807              		.cfi_offset 14, -4
 808 0002 00AF     		add	r7, sp, #0
 809              	.LCFI50:
 810              		.cfi_def_cfa_register 7
 811              		.loc 1 88 57
 812 0004 FFF7FEFF 		bl	Default_Handler
 813              		.loc 1 88 75
 814 0008 00BF     		nop
ARM GAS  C:\Users\jisu8\AppData\Local\Temp\ccupgUCl.s 			page 16


 815 000a 80BD     		pop	{r7, pc}
 816              		.cfi_endproc
 817              	.LFE89:
 819              		.section	.text.EXTI4_IRQHandler,"ax",%progbits
 820              		.align	1
 821              		.weak	EXTI4_IRQHandler
 822              		.syntax unified
 823              		.thumb
 824              		.thumb_func
 826              	EXTI4_IRQHandler:
 827              	.LFB90:
  89:startup_stm32f103xb.c **** __weak void EXTI4_IRQHandler(void)                     {Default_Handler();}  
 828              		.loc 1 89 56
 829              		.cfi_startproc
 830              		@ args = 0, pretend = 0, frame = 0
 831              		@ frame_needed = 1, uses_anonymous_args = 0
 832 0000 80B5     		push	{r7, lr}
 833              	.LCFI51:
 834              		.cfi_def_cfa_offset 8
 835              		.cfi_offset 7, -8
 836              		.cfi_offset 14, -4
 837 0002 00AF     		add	r7, sp, #0
 838              	.LCFI52:
 839              		.cfi_def_cfa_register 7
 840              		.loc 1 89 57
 841 0004 FFF7FEFF 		bl	Default_Handler
 842              		.loc 1 89 75
 843 0008 00BF     		nop
 844 000a 80BD     		pop	{r7, pc}
 845              		.cfi_endproc
 846              	.LFE90:
 848              		.section	.text.DMA1_Channel1_IRQHandler,"ax",%progbits
 849              		.align	1
 850              		.weak	DMA1_Channel1_IRQHandler
 851              		.syntax unified
 852              		.thumb
 853              		.thumb_func
 855              	DMA1_Channel1_IRQHandler:
 856              	.LFB91:
  90:startup_stm32f103xb.c **** __weak void DMA1_Channel1_IRQHandler(void)             {Default_Handler();}
 857              		.loc 1 90 56
 858              		.cfi_startproc
 859              		@ args = 0, pretend = 0, frame = 0
 860              		@ frame_needed = 1, uses_anonymous_args = 0
 861 0000 80B5     		push	{r7, lr}
 862              	.LCFI53:
 863              		.cfi_def_cfa_offset 8
 864              		.cfi_offset 7, -8
 865              		.cfi_offset 14, -4
 866 0002 00AF     		add	r7, sp, #0
 867              	.LCFI54:
 868              		.cfi_def_cfa_register 7
 869              		.loc 1 90 57
 870 0004 FFF7FEFF 		bl	Default_Handler
 871              		.loc 1 90 75
 872 0008 00BF     		nop
 873 000a 80BD     		pop	{r7, pc}
ARM GAS  C:\Users\jisu8\AppData\Local\Temp\ccupgUCl.s 			page 17


 874              		.cfi_endproc
 875              	.LFE91:
 877              		.section	.text.DMA1_Channel2_IRQHandler,"ax",%progbits
 878              		.align	1
 879              		.weak	DMA1_Channel2_IRQHandler
 880              		.syntax unified
 881              		.thumb
 882              		.thumb_func
 884              	DMA1_Channel2_IRQHandler:
 885              	.LFB92:
  91:startup_stm32f103xb.c **** __weak void DMA1_Channel2_IRQHandler(void)             {Default_Handler();}
 886              		.loc 1 91 56
 887              		.cfi_startproc
 888              		@ args = 0, pretend = 0, frame = 0
 889              		@ frame_needed = 1, uses_anonymous_args = 0
 890 0000 80B5     		push	{r7, lr}
 891              	.LCFI55:
 892              		.cfi_def_cfa_offset 8
 893              		.cfi_offset 7, -8
 894              		.cfi_offset 14, -4
 895 0002 00AF     		add	r7, sp, #0
 896              	.LCFI56:
 897              		.cfi_def_cfa_register 7
 898              		.loc 1 91 57
 899 0004 FFF7FEFF 		bl	Default_Handler
 900              		.loc 1 91 75
 901 0008 00BF     		nop
 902 000a 80BD     		pop	{r7, pc}
 903              		.cfi_endproc
 904              	.LFE92:
 906              		.section	.text.DMA1_Channel3_IRQHandler,"ax",%progbits
 907              		.align	1
 908              		.weak	DMA1_Channel3_IRQHandler
 909              		.syntax unified
 910              		.thumb
 911              		.thumb_func
 913              	DMA1_Channel3_IRQHandler:
 914              	.LFB93:
  92:startup_stm32f103xb.c **** __weak void DMA1_Channel3_IRQHandler(void)             {Default_Handler();}
 915              		.loc 1 92 56
 916              		.cfi_startproc
 917              		@ args = 0, pretend = 0, frame = 0
 918              		@ frame_needed = 1, uses_anonymous_args = 0
 919 0000 80B5     		push	{r7, lr}
 920              	.LCFI57:
 921              		.cfi_def_cfa_offset 8
 922              		.cfi_offset 7, -8
 923              		.cfi_offset 14, -4
 924 0002 00AF     		add	r7, sp, #0
 925              	.LCFI58:
 926              		.cfi_def_cfa_register 7
 927              		.loc 1 92 57
 928 0004 FFF7FEFF 		bl	Default_Handler
 929              		.loc 1 92 75
 930 0008 00BF     		nop
 931 000a 80BD     		pop	{r7, pc}
 932              		.cfi_endproc
ARM GAS  C:\Users\jisu8\AppData\Local\Temp\ccupgUCl.s 			page 18


 933              	.LFE93:
 935              		.section	.text.DMA1_Channel4_IRQHandler,"ax",%progbits
 936              		.align	1
 937              		.weak	DMA1_Channel4_IRQHandler
 938              		.syntax unified
 939              		.thumb
 940              		.thumb_func
 942              	DMA1_Channel4_IRQHandler:
 943              	.LFB94:
  93:startup_stm32f103xb.c **** __weak void DMA1_Channel4_IRQHandler(void)             {Default_Handler();}
 944              		.loc 1 93 56
 945              		.cfi_startproc
 946              		@ args = 0, pretend = 0, frame = 0
 947              		@ frame_needed = 1, uses_anonymous_args = 0
 948 0000 80B5     		push	{r7, lr}
 949              	.LCFI59:
 950              		.cfi_def_cfa_offset 8
 951              		.cfi_offset 7, -8
 952              		.cfi_offset 14, -4
 953 0002 00AF     		add	r7, sp, #0
 954              	.LCFI60:
 955              		.cfi_def_cfa_register 7
 956              		.loc 1 93 57
 957 0004 FFF7FEFF 		bl	Default_Handler
 958              		.loc 1 93 75
 959 0008 00BF     		nop
 960 000a 80BD     		pop	{r7, pc}
 961              		.cfi_endproc
 962              	.LFE94:
 964              		.section	.text.DMA1_Channel5_IRQHandler,"ax",%progbits
 965              		.align	1
 966              		.weak	DMA1_Channel5_IRQHandler
 967              		.syntax unified
 968              		.thumb
 969              		.thumb_func
 971              	DMA1_Channel5_IRQHandler:
 972              	.LFB95:
  94:startup_stm32f103xb.c **** __weak void DMA1_Channel5_IRQHandler(void)             {Default_Handler();}
 973              		.loc 1 94 56
 974              		.cfi_startproc
 975              		@ args = 0, pretend = 0, frame = 0
 976              		@ frame_needed = 1, uses_anonymous_args = 0
 977 0000 80B5     		push	{r7, lr}
 978              	.LCFI61:
 979              		.cfi_def_cfa_offset 8
 980              		.cfi_offset 7, -8
 981              		.cfi_offset 14, -4
 982 0002 00AF     		add	r7, sp, #0
 983              	.LCFI62:
 984              		.cfi_def_cfa_register 7
 985              		.loc 1 94 57
 986 0004 FFF7FEFF 		bl	Default_Handler
 987              		.loc 1 94 75
 988 0008 00BF     		nop
 989 000a 80BD     		pop	{r7, pc}
 990              		.cfi_endproc
 991              	.LFE95:
ARM GAS  C:\Users\jisu8\AppData\Local\Temp\ccupgUCl.s 			page 19


 993              		.section	.text.DMA1_Channel6_IRQHandler,"ax",%progbits
 994              		.align	1
 995              		.weak	DMA1_Channel6_IRQHandler
 996              		.syntax unified
 997              		.thumb
 998              		.thumb_func
 1000              	DMA1_Channel6_IRQHandler:
 1001              	.LFB96:
  95:startup_stm32f103xb.c **** __weak void DMA1_Channel6_IRQHandler(void)             {Default_Handler();}
 1002              		.loc 1 95 56
 1003              		.cfi_startproc
 1004              		@ args = 0, pretend = 0, frame = 0
 1005              		@ frame_needed = 1, uses_anonymous_args = 0
 1006 0000 80B5     		push	{r7, lr}
 1007              	.LCFI63:
 1008              		.cfi_def_cfa_offset 8
 1009              		.cfi_offset 7, -8
 1010              		.cfi_offset 14, -4
 1011 0002 00AF     		add	r7, sp, #0
 1012              	.LCFI64:
 1013              		.cfi_def_cfa_register 7
 1014              		.loc 1 95 57
 1015 0004 FFF7FEFF 		bl	Default_Handler
 1016              		.loc 1 95 75
 1017 0008 00BF     		nop
 1018 000a 80BD     		pop	{r7, pc}
 1019              		.cfi_endproc
 1020              	.LFE96:
 1022              		.section	.text.DMA1_Channel7_IRQHandler,"ax",%progbits
 1023              		.align	1
 1024              		.weak	DMA1_Channel7_IRQHandler
 1025              		.syntax unified
 1026              		.thumb
 1027              		.thumb_func
 1029              	DMA1_Channel7_IRQHandler:
 1030              	.LFB97:
  96:startup_stm32f103xb.c **** __weak void DMA1_Channel7_IRQHandler(void)             {Default_Handler();}          
 1031              		.loc 1 96 56
 1032              		.cfi_startproc
 1033              		@ args = 0, pretend = 0, frame = 0
 1034              		@ frame_needed = 1, uses_anonymous_args = 0
 1035 0000 80B5     		push	{r7, lr}
 1036              	.LCFI65:
 1037              		.cfi_def_cfa_offset 8
 1038              		.cfi_offset 7, -8
 1039              		.cfi_offset 14, -4
 1040 0002 00AF     		add	r7, sp, #0
 1041              	.LCFI66:
 1042              		.cfi_def_cfa_register 7
 1043              		.loc 1 96 57
 1044 0004 FFF7FEFF 		bl	Default_Handler
 1045              		.loc 1 96 75
 1046 0008 00BF     		nop
 1047 000a 80BD     		pop	{r7, pc}
 1048              		.cfi_endproc
 1049              	.LFE97:
 1051              		.section	.text.ADC1_2_IRQHandler,"ax",%progbits
ARM GAS  C:\Users\jisu8\AppData\Local\Temp\ccupgUCl.s 			page 20


 1052              		.align	1
 1053              		.weak	ADC1_2_IRQHandler
 1054              		.syntax unified
 1055              		.thumb
 1056              		.thumb_func
 1058              	ADC1_2_IRQHandler:
 1059              	.LFB98:
  97:startup_stm32f103xb.c **** __weak void ADC1_IRQHandler(void)                      {Default_Handler();} 
 1060              		.loc 1 97 56
 1061              		.cfi_startproc
 1062              		@ args = 0, pretend = 0, frame = 0
 1063              		@ frame_needed = 1, uses_anonymous_args = 0
 1064 0000 80B5     		push	{r7, lr}
 1065              	.LCFI67:
 1066              		.cfi_def_cfa_offset 8
 1067              		.cfi_offset 7, -8
 1068              		.cfi_offset 14, -4
 1069 0002 00AF     		add	r7, sp, #0
 1070              	.LCFI68:
 1071              		.cfi_def_cfa_register 7
 1072              		.loc 1 97 57
 1073 0004 FFF7FEFF 		bl	Default_Handler
 1074              		.loc 1 97 75
 1075 0008 00BF     		nop
 1076 000a 80BD     		pop	{r7, pc}
 1077              		.cfi_endproc
 1078              	.LFE98:
 1080              		.section	.text.USB_HP_CAN1_TX_IRQHandler,"ax",%progbits
 1081              		.align	1
 1082              		.weak	USB_HP_CAN1_TX_IRQHandler
 1083              		.syntax unified
 1084              		.thumb
 1085              		.thumb_func
 1087              	USB_HP_CAN1_TX_IRQHandler:
 1088              	.LFB99:
  98:startup_stm32f103xb.c **** __weak void USB_HP_CAN1_TX_IRQHandler(void)            {Default_Handler();} 
 1089              		.loc 1 98 56
 1090              		.cfi_startproc
 1091              		@ args = 0, pretend = 0, frame = 0
 1092              		@ frame_needed = 1, uses_anonymous_args = 0
 1093 0000 80B5     		push	{r7, lr}
 1094              	.LCFI69:
 1095              		.cfi_def_cfa_offset 8
 1096              		.cfi_offset 7, -8
 1097              		.cfi_offset 14, -4
 1098 0002 00AF     		add	r7, sp, #0
 1099              	.LCFI70:
 1100              		.cfi_def_cfa_register 7
 1101              		.loc 1 98 57
 1102 0004 FFF7FEFF 		bl	Default_Handler
 1103              		.loc 1 98 75
 1104 0008 00BF     		nop
 1105 000a 80BD     		pop	{r7, pc}
 1106              		.cfi_endproc
 1107              	.LFE99:
 1109              		.section	.text.USB_LP_CAN1_RX0_IRQHandler,"ax",%progbits
 1110              		.align	1
ARM GAS  C:\Users\jisu8\AppData\Local\Temp\ccupgUCl.s 			page 21


 1111              		.weak	USB_LP_CAN1_RX0_IRQHandler
 1112              		.syntax unified
 1113              		.thumb
 1114              		.thumb_func
 1116              	USB_LP_CAN1_RX0_IRQHandler:
 1117              	.LFB100:
  99:startup_stm32f103xb.c **** __weak void USB_LP_CAN1_RX0_IRQHandler(void)           {Default_Handler();}
 1118              		.loc 1 99 56
 1119              		.cfi_startproc
 1120              		@ args = 0, pretend = 0, frame = 0
 1121              		@ frame_needed = 1, uses_anonymous_args = 0
 1122 0000 80B5     		push	{r7, lr}
 1123              	.LCFI71:
 1124              		.cfi_def_cfa_offset 8
 1125              		.cfi_offset 7, -8
 1126              		.cfi_offset 14, -4
 1127 0002 00AF     		add	r7, sp, #0
 1128              	.LCFI72:
 1129              		.cfi_def_cfa_register 7
 1130              		.loc 1 99 57
 1131 0004 FFF7FEFF 		bl	Default_Handler
 1132              		.loc 1 99 75
 1133 0008 00BF     		nop
 1134 000a 80BD     		pop	{r7, pc}
 1135              		.cfi_endproc
 1136              	.LFE100:
 1138              		.section	.text.CAN1_RX1_IRQHandler,"ax",%progbits
 1139              		.align	1
 1140              		.weak	CAN1_RX1_IRQHandler
 1141              		.syntax unified
 1142              		.thumb
 1143              		.thumb_func
 1145              	CAN1_RX1_IRQHandler:
 1146              	.LFB101:
 100:startup_stm32f103xb.c **** __weak void CAN1_RX1_IRQHandler(void)                  {Default_Handler();}
 1147              		.loc 1 100 56
 1148              		.cfi_startproc
 1149              		@ args = 0, pretend = 0, frame = 0
 1150              		@ frame_needed = 1, uses_anonymous_args = 0
 1151 0000 80B5     		push	{r7, lr}
 1152              	.LCFI73:
 1153              		.cfi_def_cfa_offset 8
 1154              		.cfi_offset 7, -8
 1155              		.cfi_offset 14, -4
 1156 0002 00AF     		add	r7, sp, #0
 1157              	.LCFI74:
 1158              		.cfi_def_cfa_register 7
 1159              		.loc 1 100 57
 1160 0004 FFF7FEFF 		bl	Default_Handler
 1161              		.loc 1 100 75
 1162 0008 00BF     		nop
 1163 000a 80BD     		pop	{r7, pc}
 1164              		.cfi_endproc
 1165              	.LFE101:
 1167              		.section	.text.CAN1_SCE_IRQHandler,"ax",%progbits
 1168              		.align	1
 1169              		.weak	CAN1_SCE_IRQHandler
ARM GAS  C:\Users\jisu8\AppData\Local\Temp\ccupgUCl.s 			page 22


 1170              		.syntax unified
 1171              		.thumb
 1172              		.thumb_func
 1174              	CAN1_SCE_IRQHandler:
 1175              	.LFB102:
 101:startup_stm32f103xb.c **** __weak void CAN1_SCE_IRQHandler(void)                  {Default_Handler();}
 1176              		.loc 1 101 56
 1177              		.cfi_startproc
 1178              		@ args = 0, pretend = 0, frame = 0
 1179              		@ frame_needed = 1, uses_anonymous_args = 0
 1180 0000 80B5     		push	{r7, lr}
 1181              	.LCFI75:
 1182              		.cfi_def_cfa_offset 8
 1183              		.cfi_offset 7, -8
 1184              		.cfi_offset 14, -4
 1185 0002 00AF     		add	r7, sp, #0
 1186              	.LCFI76:
 1187              		.cfi_def_cfa_register 7
 1188              		.loc 1 101 57
 1189 0004 FFF7FEFF 		bl	Default_Handler
 1190              		.loc 1 101 75
 1191 0008 00BF     		nop
 1192 000a 80BD     		pop	{r7, pc}
 1193              		.cfi_endproc
 1194              	.LFE102:
 1196              		.section	.text.EXTI9_5_IRQHandler,"ax",%progbits
 1197              		.align	1
 1198              		.weak	EXTI9_5_IRQHandler
 1199              		.syntax unified
 1200              		.thumb
 1201              		.thumb_func
 1203              	EXTI9_5_IRQHandler:
 1204              	.LFB103:
 102:startup_stm32f103xb.c **** __weak void EXTI9_5_IRQHandler(void)                   {Default_Handler();}
 1205              		.loc 1 102 56
 1206              		.cfi_startproc
 1207              		@ args = 0, pretend = 0, frame = 0
 1208              		@ frame_needed = 1, uses_anonymous_args = 0
 1209 0000 80B5     		push	{r7, lr}
 1210              	.LCFI77:
 1211              		.cfi_def_cfa_offset 8
 1212              		.cfi_offset 7, -8
 1213              		.cfi_offset 14, -4
 1214 0002 00AF     		add	r7, sp, #0
 1215              	.LCFI78:
 1216              		.cfi_def_cfa_register 7
 1217              		.loc 1 102 57
 1218 0004 FFF7FEFF 		bl	Default_Handler
 1219              		.loc 1 102 75
 1220 0008 00BF     		nop
 1221 000a 80BD     		pop	{r7, pc}
 1222              		.cfi_endproc
 1223              	.LFE103:
 1225              		.section	.text.TIM1_BRK_IRQHandler,"ax",%progbits
 1226              		.align	1
 1227              		.weak	TIM1_BRK_IRQHandler
 1228              		.syntax unified
ARM GAS  C:\Users\jisu8\AppData\Local\Temp\ccupgUCl.s 			page 23


 1229              		.thumb
 1230              		.thumb_func
 1232              	TIM1_BRK_IRQHandler:
 1233              	.LFB104:
 103:startup_stm32f103xb.c **** __weak void TIM1_BRK_IRQHandler(void)                  {Default_Handler();}
 1234              		.loc 1 103 56
 1235              		.cfi_startproc
 1236              		@ args = 0, pretend = 0, frame = 0
 1237              		@ frame_needed = 1, uses_anonymous_args = 0
 1238 0000 80B5     		push	{r7, lr}
 1239              	.LCFI79:
 1240              		.cfi_def_cfa_offset 8
 1241              		.cfi_offset 7, -8
 1242              		.cfi_offset 14, -4
 1243 0002 00AF     		add	r7, sp, #0
 1244              	.LCFI80:
 1245              		.cfi_def_cfa_register 7
 1246              		.loc 1 103 57
 1247 0004 FFF7FEFF 		bl	Default_Handler
 1248              		.loc 1 103 75
 1249 0008 00BF     		nop
 1250 000a 80BD     		pop	{r7, pc}
 1251              		.cfi_endproc
 1252              	.LFE104:
 1254              		.section	.text.TIM1_UP_IRQHandler,"ax",%progbits
 1255              		.align	1
 1256              		.weak	TIM1_UP_IRQHandler
 1257              		.syntax unified
 1258              		.thumb
 1259              		.thumb_func
 1261              	TIM1_UP_IRQHandler:
 1262              	.LFB105:
 104:startup_stm32f103xb.c **** __weak void TIM1_UP_IRQHandler(void)                   {Default_Handler();}
 1263              		.loc 1 104 56
 1264              		.cfi_startproc
 1265              		@ args = 0, pretend = 0, frame = 0
 1266              		@ frame_needed = 1, uses_anonymous_args = 0
 1267 0000 80B5     		push	{r7, lr}
 1268              	.LCFI81:
 1269              		.cfi_def_cfa_offset 8
 1270              		.cfi_offset 7, -8
 1271              		.cfi_offset 14, -4
 1272 0002 00AF     		add	r7, sp, #0
 1273              	.LCFI82:
 1274              		.cfi_def_cfa_register 7
 1275              		.loc 1 104 57
 1276 0004 FFF7FEFF 		bl	Default_Handler
 1277              		.loc 1 104 75
 1278 0008 00BF     		nop
 1279 000a 80BD     		pop	{r7, pc}
 1280              		.cfi_endproc
 1281              	.LFE105:
 1283              		.section	.text.TIM1_TRG_COM_IRQHandler,"ax",%progbits
 1284              		.align	1
 1285              		.weak	TIM1_TRG_COM_IRQHandler
 1286              		.syntax unified
 1287              		.thumb
ARM GAS  C:\Users\jisu8\AppData\Local\Temp\ccupgUCl.s 			page 24


 1288              		.thumb_func
 1290              	TIM1_TRG_COM_IRQHandler:
 1291              	.LFB106:
 105:startup_stm32f103xb.c **** __weak void TIM1_TRG_COM_IRQHandler(void)              {Default_Handler();}                 
 1292              		.loc 1 105 56
 1293              		.cfi_startproc
 1294              		@ args = 0, pretend = 0, frame = 0
 1295              		@ frame_needed = 1, uses_anonymous_args = 0
 1296 0000 80B5     		push	{r7, lr}
 1297              	.LCFI83:
 1298              		.cfi_def_cfa_offset 8
 1299              		.cfi_offset 7, -8
 1300              		.cfi_offset 14, -4
 1301 0002 00AF     		add	r7, sp, #0
 1302              	.LCFI84:
 1303              		.cfi_def_cfa_register 7
 1304              		.loc 1 105 57
 1305 0004 FFF7FEFF 		bl	Default_Handler
 1306              		.loc 1 105 75
 1307 0008 00BF     		nop
 1308 000a 80BD     		pop	{r7, pc}
 1309              		.cfi_endproc
 1310              	.LFE106:
 1312              		.section	.text.TIM1_BRK_UP_TRG_COM_IRQHandler,"ax",%progbits
 1313              		.align	1
 1314              		.weak	TIM1_BRK_UP_TRG_COM_IRQHandler
 1315              		.syntax unified
 1316              		.thumb
 1317              		.thumb_func
 1319              	TIM1_BRK_UP_TRG_COM_IRQHandler:
 1320              	.LFB107:
 106:startup_stm32f103xb.c **** __weak void TIM1_BRK_UP_TRG_COM_IRQHandler(void)       {Default_Handler();}    
 1321              		.loc 1 106 56
 1322              		.cfi_startproc
 1323              		@ args = 0, pretend = 0, frame = 0
 1324              		@ frame_needed = 1, uses_anonymous_args = 0
 1325 0000 80B5     		push	{r7, lr}
 1326              	.LCFI85:
 1327              		.cfi_def_cfa_offset 8
 1328              		.cfi_offset 7, -8
 1329              		.cfi_offset 14, -4
 1330 0002 00AF     		add	r7, sp, #0
 1331              	.LCFI86:
 1332              		.cfi_def_cfa_register 7
 1333              		.loc 1 106 57
 1334 0004 FFF7FEFF 		bl	Default_Handler
 1335              		.loc 1 106 75
 1336 0008 00BF     		nop
 1337 000a 80BD     		pop	{r7, pc}
 1338              		.cfi_endproc
 1339              	.LFE107:
 1341              		.section	.text.TIM1_CC_IRQHandler,"ax",%progbits
 1342              		.align	1
 1343              		.weak	TIM1_CC_IRQHandler
 1344              		.syntax unified
 1345              		.thumb
 1346              		.thumb_func
ARM GAS  C:\Users\jisu8\AppData\Local\Temp\ccupgUCl.s 			page 25


 1348              	TIM1_CC_IRQHandler:
 1349              	.LFB108:
 107:startup_stm32f103xb.c **** __weak void TIM1_CC_IRQHandler(void)                   {Default_Handler();}               
 1350              		.loc 1 107 56
 1351              		.cfi_startproc
 1352              		@ args = 0, pretend = 0, frame = 0
 1353              		@ frame_needed = 1, uses_anonymous_args = 0
 1354 0000 80B5     		push	{r7, lr}
 1355              	.LCFI87:
 1356              		.cfi_def_cfa_offset 8
 1357              		.cfi_offset 7, -8
 1358              		.cfi_offset 14, -4
 1359 0002 00AF     		add	r7, sp, #0
 1360              	.LCFI88:
 1361              		.cfi_def_cfa_register 7
 1362              		.loc 1 107 57
 1363 0004 FFF7FEFF 		bl	Default_Handler
 1364              		.loc 1 107 75
 1365 0008 00BF     		nop
 1366 000a 80BD     		pop	{r7, pc}
 1367              		.cfi_endproc
 1368              	.LFE108:
 1370              		.section	.text.TIM3_IRQHandler,"ax",%progbits
 1371              		.align	1
 1372              		.weak	TIM3_IRQHandler
 1373              		.syntax unified
 1374              		.thumb
 1375              		.thumb_func
 1377              	TIM3_IRQHandler:
 1378              	.LFB109:
 108:startup_stm32f103xb.c **** __weak void TIM3_IRQHandler(void)                      {Default_Handler();}                
 1379              		.loc 1 108 56
 1380              		.cfi_startproc
 1381              		@ args = 0, pretend = 0, frame = 0
 1382              		@ frame_needed = 1, uses_anonymous_args = 0
 1383 0000 80B5     		push	{r7, lr}
 1384              	.LCFI89:
 1385              		.cfi_def_cfa_offset 8
 1386              		.cfi_offset 7, -8
 1387              		.cfi_offset 14, -4
 1388 0002 00AF     		add	r7, sp, #0
 1389              	.LCFI90:
 1390              		.cfi_def_cfa_register 7
 1391              		.loc 1 108 57
 1392 0004 FFF7FEFF 		bl	Default_Handler
 1393              		.loc 1 108 75
 1394 0008 00BF     		nop
 1395 000a 80BD     		pop	{r7, pc}
 1396              		.cfi_endproc
 1397              	.LFE109:
 1399              		.section	.text.TIM2_IRQHandler,"ax",%progbits
 1400              		.align	1
 1401              		.weak	TIM2_IRQHandler
 1402              		.syntax unified
 1403              		.thumb
 1404              		.thumb_func
 1406              	TIM2_IRQHandler:
ARM GAS  C:\Users\jisu8\AppData\Local\Temp\ccupgUCl.s 			page 26


 1407              	.LFB110:
 109:startup_stm32f103xb.c **** __weak void TIM2_IRQHandler(void)                      {TIM2_Handler();}               
 1408              		.loc 1 109 56
 1409              		.cfi_startproc
 1410              		@ args = 0, pretend = 0, frame = 0
 1411              		@ frame_needed = 1, uses_anonymous_args = 0
 1412 0000 80B5     		push	{r7, lr}
 1413              	.LCFI91:
 1414              		.cfi_def_cfa_offset 8
 1415              		.cfi_offset 7, -8
 1416              		.cfi_offset 14, -4
 1417 0002 00AF     		add	r7, sp, #0
 1418              	.LCFI92:
 1419              		.cfi_def_cfa_register 7
 1420              		.loc 1 109 57
 1421 0004 FFF7FEFF 		bl	TIM2_Handler
 1422              		.loc 1 109 72
 1423 0008 00BF     		nop
 1424 000a 80BD     		pop	{r7, pc}
 1425              		.cfi_endproc
 1426              	.LFE110:
 1428              		.section	.text.TIM4_IRQHandler,"ax",%progbits
 1429              		.align	1
 1430              		.weak	TIM4_IRQHandler
 1431              		.syntax unified
 1432              		.thumb
 1433              		.thumb_func
 1435              	TIM4_IRQHandler:
 1436              	.LFB111:
 110:startup_stm32f103xb.c **** __weak void TIM4_IRQHandler(void)                      {TIM4_Handler();}     
 1437              		.loc 1 110 56
 1438              		.cfi_startproc
 1439              		@ args = 0, pretend = 0, frame = 0
 1440              		@ frame_needed = 1, uses_anonymous_args = 0
 1441 0000 80B5     		push	{r7, lr}
 1442              	.LCFI93:
 1443              		.cfi_def_cfa_offset 8
 1444              		.cfi_offset 7, -8
 1445              		.cfi_offset 14, -4
 1446 0002 00AF     		add	r7, sp, #0
 1447              	.LCFI94:
 1448              		.cfi_def_cfa_register 7
 1449              		.loc 1 110 57
 1450 0004 FFF7FEFF 		bl	TIM4_Handler
 1451              		.loc 1 110 72
 1452 0008 00BF     		nop
 1453 000a 80BD     		pop	{r7, pc}
 1454              		.cfi_endproc
 1455              	.LFE111:
 1457              		.section	.text.I2C1_EV_IRQHandler,"ax",%progbits
 1458              		.align	1
 1459              		.weak	I2C1_EV_IRQHandler
 1460              		.syntax unified
 1461              		.thumb
 1462              		.thumb_func
 1464              	I2C1_EV_IRQHandler:
 1465              	.LFB112:
ARM GAS  C:\Users\jisu8\AppData\Local\Temp\ccupgUCl.s 			page 27


 111:startup_stm32f103xb.c **** __weak void I2C1_EV_IRQHandler(void)                   {Default_Handler();} 
 1466              		.loc 1 111 56
 1467              		.cfi_startproc
 1468              		@ args = 0, pretend = 0, frame = 0
 1469              		@ frame_needed = 1, uses_anonymous_args = 0
 1470 0000 80B5     		push	{r7, lr}
 1471              	.LCFI95:
 1472              		.cfi_def_cfa_offset 8
 1473              		.cfi_offset 7, -8
 1474              		.cfi_offset 14, -4
 1475 0002 00AF     		add	r7, sp, #0
 1476              	.LCFI96:
 1477              		.cfi_def_cfa_register 7
 1478              		.loc 1 111 57
 1479 0004 FFF7FEFF 		bl	Default_Handler
 1480              		.loc 1 111 75
 1481 0008 00BF     		nop
 1482 000a 80BD     		pop	{r7, pc}
 1483              		.cfi_endproc
 1484              	.LFE112:
 1486              		.section	.text.I2C1_ER_IRQHandler,"ax",%progbits
 1487              		.align	1
 1488              		.weak	I2C1_ER_IRQHandler
 1489              		.syntax unified
 1490              		.thumb
 1491              		.thumb_func
 1493              	I2C1_ER_IRQHandler:
 1494              	.LFB113:
 112:startup_stm32f103xb.c **** __weak void I2C1_ER_IRQHandler(void)                   {Default_Handler();} 
 1495              		.loc 1 112 56
 1496              		.cfi_startproc
 1497              		@ args = 0, pretend = 0, frame = 0
 1498              		@ frame_needed = 1, uses_anonymous_args = 0
 1499 0000 80B5     		push	{r7, lr}
 1500              	.LCFI97:
 1501              		.cfi_def_cfa_offset 8
 1502              		.cfi_offset 7, -8
 1503              		.cfi_offset 14, -4
 1504 0002 00AF     		add	r7, sp, #0
 1505              	.LCFI98:
 1506              		.cfi_def_cfa_register 7
 1507              		.loc 1 112 57
 1508 0004 FFF7FEFF 		bl	Default_Handler
 1509              		.loc 1 112 75
 1510 0008 00BF     		nop
 1511 000a 80BD     		pop	{r7, pc}
 1512              		.cfi_endproc
 1513              	.LFE113:
 1515              		.section	.text.I2C2_EV_IRQHandler,"ax",%progbits
 1516              		.align	1
 1517              		.weak	I2C2_EV_IRQHandler
 1518              		.syntax unified
 1519              		.thumb
 1520              		.thumb_func
 1522              	I2C2_EV_IRQHandler:
 1523              	.LFB114:
 113:startup_stm32f103xb.c **** __weak void I2C2_EV_IRQHandler(void)                   {Default_Handler();} 
ARM GAS  C:\Users\jisu8\AppData\Local\Temp\ccupgUCl.s 			page 28


 1524              		.loc 1 113 56
 1525              		.cfi_startproc
 1526              		@ args = 0, pretend = 0, frame = 0
 1527              		@ frame_needed = 1, uses_anonymous_args = 0
 1528 0000 80B5     		push	{r7, lr}
 1529              	.LCFI99:
 1530              		.cfi_def_cfa_offset 8
 1531              		.cfi_offset 7, -8
 1532              		.cfi_offset 14, -4
 1533 0002 00AF     		add	r7, sp, #0
 1534              	.LCFI100:
 1535              		.cfi_def_cfa_register 7
 1536              		.loc 1 113 57
 1537 0004 FFF7FEFF 		bl	Default_Handler
 1538              		.loc 1 113 75
 1539 0008 00BF     		nop
 1540 000a 80BD     		pop	{r7, pc}
 1541              		.cfi_endproc
 1542              	.LFE114:
 1544              		.section	.text.I2C2_ER_IRQHandler,"ax",%progbits
 1545              		.align	1
 1546              		.weak	I2C2_ER_IRQHandler
 1547              		.syntax unified
 1548              		.thumb
 1549              		.thumb_func
 1551              	I2C2_ER_IRQHandler:
 1552              	.LFB115:
 114:startup_stm32f103xb.c **** __weak void I2C2_ER_IRQHandler(void)                   {Default_Handler();}              
 1553              		.loc 1 114 56
 1554              		.cfi_startproc
 1555              		@ args = 0, pretend = 0, frame = 0
 1556              		@ frame_needed = 1, uses_anonymous_args = 0
 1557 0000 80B5     		push	{r7, lr}
 1558              	.LCFI101:
 1559              		.cfi_def_cfa_offset 8
 1560              		.cfi_offset 7, -8
 1561              		.cfi_offset 14, -4
 1562 0002 00AF     		add	r7, sp, #0
 1563              	.LCFI102:
 1564              		.cfi_def_cfa_register 7
 1565              		.loc 1 114 57
 1566 0004 FFF7FEFF 		bl	Default_Handler
 1567              		.loc 1 114 75
 1568 0008 00BF     		nop
 1569 000a 80BD     		pop	{r7, pc}
 1570              		.cfi_endproc
 1571              	.LFE115:
 1573              		.section	.text.SPI1_IRQHandler,"ax",%progbits
 1574              		.align	1
 1575              		.weak	SPI1_IRQHandler
 1576              		.syntax unified
 1577              		.thumb
 1578              		.thumb_func
 1580              	SPI1_IRQHandler:
 1581              	.LFB116:
 115:startup_stm32f103xb.c **** __weak void SPI1_IRQHandler(void)                      {Default_Handler();}             
 1582              		.loc 1 115 56
ARM GAS  C:\Users\jisu8\AppData\Local\Temp\ccupgUCl.s 			page 29


 1583              		.cfi_startproc
 1584              		@ args = 0, pretend = 0, frame = 0
 1585              		@ frame_needed = 1, uses_anonymous_args = 0
 1586 0000 80B5     		push	{r7, lr}
 1587              	.LCFI103:
 1588              		.cfi_def_cfa_offset 8
 1589              		.cfi_offset 7, -8
 1590              		.cfi_offset 14, -4
 1591 0002 00AF     		add	r7, sp, #0
 1592              	.LCFI104:
 1593              		.cfi_def_cfa_register 7
 1594              		.loc 1 115 57
 1595 0004 FFF7FEFF 		bl	Default_Handler
 1596              		.loc 1 115 75
 1597 0008 00BF     		nop
 1598 000a 80BD     		pop	{r7, pc}
 1599              		.cfi_endproc
 1600              	.LFE116:
 1602              		.section	.text.SPI2_IRQHandler,"ax",%progbits
 1603              		.align	1
 1604              		.weak	SPI2_IRQHandler
 1605              		.syntax unified
 1606              		.thumb
 1607              		.thumb_func
 1609              	SPI2_IRQHandler:
 1610              	.LFB117:
 116:startup_stm32f103xb.c **** __weak void SPI2_IRQHandler(void)                      {Default_Handler();}               
 1611              		.loc 1 116 56
 1612              		.cfi_startproc
 1613              		@ args = 0, pretend = 0, frame = 0
 1614              		@ frame_needed = 1, uses_anonymous_args = 0
 1615 0000 80B5     		push	{r7, lr}
 1616              	.LCFI105:
 1617              		.cfi_def_cfa_offset 8
 1618              		.cfi_offset 7, -8
 1619              		.cfi_offset 14, -4
 1620 0002 00AF     		add	r7, sp, #0
 1621              	.LCFI106:
 1622              		.cfi_def_cfa_register 7
 1623              		.loc 1 116 57
 1624 0004 FFF7FEFF 		bl	Default_Handler
 1625              		.loc 1 116 75
 1626 0008 00BF     		nop
 1627 000a 80BD     		pop	{r7, pc}
 1628              		.cfi_endproc
 1629              	.LFE117:
 1631              		.section	.text.USART1_IRQHandler,"ax",%progbits
 1632              		.align	1
 1633              		.weak	USART1_IRQHandler
 1634              		.syntax unified
 1635              		.thumb
 1636              		.thumb_func
 1638              	USART1_IRQHandler:
 1639              	.LFB118:
 117:startup_stm32f103xb.c **** __weak void USART1_IRQHandler(void)                    {Default_Handler();}              
 1640              		.loc 1 117 56
 1641              		.cfi_startproc
ARM GAS  C:\Users\jisu8\AppData\Local\Temp\ccupgUCl.s 			page 30


 1642              		@ args = 0, pretend = 0, frame = 0
 1643              		@ frame_needed = 1, uses_anonymous_args = 0
 1644 0000 80B5     		push	{r7, lr}
 1645              	.LCFI107:
 1646              		.cfi_def_cfa_offset 8
 1647              		.cfi_offset 7, -8
 1648              		.cfi_offset 14, -4
 1649 0002 00AF     		add	r7, sp, #0
 1650              	.LCFI108:
 1651              		.cfi_def_cfa_register 7
 1652              		.loc 1 117 57
 1653 0004 FFF7FEFF 		bl	Default_Handler
 1654              		.loc 1 117 75
 1655 0008 00BF     		nop
 1656 000a 80BD     		pop	{r7, pc}
 1657              		.cfi_endproc
 1658              	.LFE118:
 1660              		.section	.text.USART2_IRQHandler,"ax",%progbits
 1661              		.align	1
 1662              		.weak	USART2_IRQHandler
 1663              		.syntax unified
 1664              		.thumb
 1665              		.thumb_func
 1667              	USART2_IRQHandler:
 1668              	.LFB119:
 118:startup_stm32f103xb.c **** __weak void USART2_IRQHandler(void)                    {UART2_Handler();}              
 1669              		.loc 1 118 56
 1670              		.cfi_startproc
 1671              		@ args = 0, pretend = 0, frame = 0
 1672              		@ frame_needed = 1, uses_anonymous_args = 0
 1673 0000 80B5     		push	{r7, lr}
 1674              	.LCFI109:
 1675              		.cfi_def_cfa_offset 8
 1676              		.cfi_offset 7, -8
 1677              		.cfi_offset 14, -4
 1678 0002 00AF     		add	r7, sp, #0
 1679              	.LCFI110:
 1680              		.cfi_def_cfa_register 7
 1681              		.loc 1 118 57
 1682 0004 FFF7FEFF 		bl	UART2_Handler
 1683              		.loc 1 118 73
 1684 0008 00BF     		nop
 1685 000a 80BD     		pop	{r7, pc}
 1686              		.cfi_endproc
 1687              	.LFE119:
 1689              		.section	.text.USART3_IRQHandler,"ax",%progbits
 1690              		.align	1
 1691              		.weak	USART3_IRQHandler
 1692              		.syntax unified
 1693              		.thumb
 1694              		.thumb_func
 1696              	USART3_IRQHandler:
 1697              	.LFB120:
 119:startup_stm32f103xb.c **** __weak void USART3_IRQHandler(void)                    {Default_Handler();}              
 1698              		.loc 1 119 56
 1699              		.cfi_startproc
 1700              		@ args = 0, pretend = 0, frame = 0
ARM GAS  C:\Users\jisu8\AppData\Local\Temp\ccupgUCl.s 			page 31


 1701              		@ frame_needed = 1, uses_anonymous_args = 0
 1702 0000 80B5     		push	{r7, lr}
 1703              	.LCFI111:
 1704              		.cfi_def_cfa_offset 8
 1705              		.cfi_offset 7, -8
 1706              		.cfi_offset 14, -4
 1707 0002 00AF     		add	r7, sp, #0
 1708              	.LCFI112:
 1709              		.cfi_def_cfa_register 7
 1710              		.loc 1 119 57
 1711 0004 FFF7FEFF 		bl	Default_Handler
 1712              		.loc 1 119 75
 1713 0008 00BF     		nop
 1714 000a 80BD     		pop	{r7, pc}
 1715              		.cfi_endproc
 1716              	.LFE120:
 1718              		.section	.text.EXTI15_10_IRQHandler,"ax",%progbits
 1719              		.align	1
 1720              		.weak	EXTI15_10_IRQHandler
 1721              		.syntax unified
 1722              		.thumb
 1723              		.thumb_func
 1725              	EXTI15_10_IRQHandler:
 1726              	.LFB121:
 120:startup_stm32f103xb.c **** __weak void EXTI15_10_IRQHandler(void)                 {Default_Handler();} 
 1727              		.loc 1 120 56
 1728              		.cfi_startproc
 1729              		@ args = 0, pretend = 0, frame = 0
 1730              		@ frame_needed = 1, uses_anonymous_args = 0
 1731 0000 80B5     		push	{r7, lr}
 1732              	.LCFI113:
 1733              		.cfi_def_cfa_offset 8
 1734              		.cfi_offset 7, -8
 1735              		.cfi_offset 14, -4
 1736 0002 00AF     		add	r7, sp, #0
 1737              	.LCFI114:
 1738              		.cfi_def_cfa_register 7
 1739              		.loc 1 120 57
 1740 0004 FFF7FEFF 		bl	Default_Handler
 1741              		.loc 1 120 75
 1742 0008 00BF     		nop
 1743 000a 80BD     		pop	{r7, pc}
 1744              		.cfi_endproc
 1745              	.LFE121:
 1747              		.section	.text.RTC_Alarm_IRQHandler,"ax",%progbits
 1748              		.align	1
 1749              		.weak	RTC_Alarm_IRQHandler
 1750              		.syntax unified
 1751              		.thumb
 1752              		.thumb_func
 1754              	RTC_Alarm_IRQHandler:
 1755              	.LFB122:
 121:startup_stm32f103xb.c **** __weak void RTC_Alarm_IRQHandler(void)                 {Default_Handler();} 
 1756              		.loc 1 121 56
 1757              		.cfi_startproc
 1758              		@ args = 0, pretend = 0, frame = 0
 1759              		@ frame_needed = 1, uses_anonymous_args = 0
ARM GAS  C:\Users\jisu8\AppData\Local\Temp\ccupgUCl.s 			page 32


 1760 0000 80B5     		push	{r7, lr}
 1761              	.LCFI115:
 1762              		.cfi_def_cfa_offset 8
 1763              		.cfi_offset 7, -8
 1764              		.cfi_offset 14, -4
 1765 0002 00AF     		add	r7, sp, #0
 1766              	.LCFI116:
 1767              		.cfi_def_cfa_register 7
 1768              		.loc 1 121 57
 1769 0004 FFF7FEFF 		bl	Default_Handler
 1770              		.loc 1 121 75
 1771 0008 00BF     		nop
 1772 000a 80BD     		pop	{r7, pc}
 1773              		.cfi_endproc
 1774              	.LFE122:
 1776              		.section	.text.USBWakeUp_IRQHandler,"ax",%progbits
 1777              		.align	1
 1778              		.weak	USBWakeUp_IRQHandler
 1779              		.syntax unified
 1780              		.thumb
 1781              		.thumb_func
 1783              	USBWakeUp_IRQHandler:
 1784              	.LFB123:
 122:startup_stm32f103xb.c **** __weak void USBWakeUp_IRQHandler(void)                 {Default_Handler();} 
 1785              		.loc 1 122 56
 1786              		.cfi_startproc
 1787              		@ args = 0, pretend = 0, frame = 0
 1788              		@ frame_needed = 1, uses_anonymous_args = 0
 1789 0000 80B5     		push	{r7, lr}
 1790              	.LCFI117:
 1791              		.cfi_def_cfa_offset 8
 1792              		.cfi_offset 7, -8
 1793              		.cfi_offset 14, -4
 1794 0002 00AF     		add	r7, sp, #0
 1795              	.LCFI118:
 1796              		.cfi_def_cfa_register 7
 1797              		.loc 1 122 57
 1798 0004 FFF7FEFF 		bl	Default_Handler
 1799              		.loc 1 122 75
 1800 0008 00BF     		nop
 1801 000a 80BD     		pop	{r7, pc}
 1802              		.cfi_endproc
 1803              	.LFE123:
 1805              		.section	.text.BootRAM,"ax",%progbits
 1806              		.align	1
 1807              		.weak	BootRAM
 1808              		.syntax unified
 1809              		.thumb
 1810              		.thumb_func
 1812              	BootRAM:
 1813              	.LFB124:
 123:startup_stm32f103xb.c **** __weak void BootRAM(void)                              {Default_Handler();} 
 1814              		.loc 1 123 56
 1815              		.cfi_startproc
 1816              		@ args = 0, pretend = 0, frame = 0
 1817              		@ frame_needed = 1, uses_anonymous_args = 0
 1818 0000 80B5     		push	{r7, lr}
ARM GAS  C:\Users\jisu8\AppData\Local\Temp\ccupgUCl.s 			page 33


 1819              	.LCFI119:
 1820              		.cfi_def_cfa_offset 8
 1821              		.cfi_offset 7, -8
 1822              		.cfi_offset 14, -4
 1823 0002 00AF     		add	r7, sp, #0
 1824              	.LCFI120:
 1825              		.cfi_def_cfa_register 7
 1826              		.loc 1 123 57
 1827 0004 FFF7FEFF 		bl	Default_Handler
 1828              		.loc 1 123 75
 1829 0008 00BF     		nop
 1830 000a 80BD     		pop	{r7, pc}
 1831              		.cfi_endproc
 1832              	.LFE124:
 1834              		.global	VectorTable
 1835              		.section	.isr_vector,"aw"
 1836              		.align	2
 1839              	VectorTable:
 1840 0000 00000000 		.word	_estack
 1841 0004 00000000 		.word	Reset_Handler
 1842 0008 00000000 		.word	NMI_Handler
 1843 000c 00000000 		.word	HardFault_Handler
 1844 0010 00000000 		.word	MemManage_Handler
 1845 0014 00000000 		.word	BusFault_Handler
 1846 0018 00000000 		.word	UsageFault_Handler
 1847 001c 00000000 		.word	0
 1848 0020 00000000 		.word	0
 1849 0024 00000000 		.word	0
 1850 0028 00000000 		.word	0
 1851 002c 00000000 		.word	SVC_Handler
 1852 0030 00000000 		.word	DebugMon_Handler
 1853 0034 00000000 		.word	0
 1854 0038 00000000 		.word	PendSV_Handler
 1855 003c 00000000 		.word	SysTick_Handler
 1856 0040 00000000 		.word	WWDG_IRQHandler
 1857 0044 00000000 		.word	PVD_IRQHandler
 1858 0048 00000000 		.word	TAMPER_IRQHandler
 1859 004c 00000000 		.word	RTC_IRQHandler
 1860 0050 00000000 		.word	FLASH_IRQHandler
 1861 0054 00000000 		.word	RCC_IRQHandler
 1862 0058 00000000 		.word	EXTI0_IRQHandler
 1863 005c 00000000 		.word	EXTI1_IRQHandler
 1864 0060 00000000 		.word	EXTI2_IRQHandler
 1865 0064 00000000 		.word	EXTI3_IRQHandler
 1866 0068 00000000 		.word	EXTI4_IRQHandler
 1867 006c 00000000 		.word	DMA1_Channel1_IRQHandler
 1868 0070 00000000 		.word	DMA1_Channel2_IRQHandler
 1869 0074 00000000 		.word	DMA1_Channel3_IRQHandler
 1870 0078 00000000 		.word	DMA1_Channel4_IRQHandler
 1871 007c 00000000 		.word	DMA1_Channel5_IRQHandler
 1872 0080 00000000 		.word	DMA1_Channel6_IRQHandler
 1873 0084 00000000 		.word	DMA1_Channel7_IRQHandler
 1874 0088 00000000 		.word	ADC1_2_IRQHandler
 1875 008c 00000000 		.word	USB_HP_CAN1_TX_IRQHandler
 1876 0090 00000000 		.word	USB_LP_CAN1_RX0_IRQHandler
 1877 0094 00000000 		.word	CAN1_RX1_IRQHandler
 1878 0098 00000000 		.word	CAN1_SCE_IRQHandler
ARM GAS  C:\Users\jisu8\AppData\Local\Temp\ccupgUCl.s 			page 34


 1879 009c 00000000 		.word	EXTI9_5_IRQHandler
 1880 00a0 00000000 		.word	TIM1_BRK_IRQHandler
 1881 00a4 00000000 		.word	TIM1_UP_IRQHandler
 1882 00a8 00000000 		.word	TIM1_TRG_COM_IRQHandler
 1883 00ac 00000000 		.word	TIM1_CC_IRQHandler
 1884 00b0 00000000 		.word	TIM2_IRQHandler
 1885 00b4 00000000 		.word	TIM3_IRQHandler
 1886 00b8 00000000 		.word	TIM4_IRQHandler
 1887 00bc 00000000 		.word	I2C1_EV_IRQHandler
 1888 00c0 00000000 		.word	I2C1_ER_IRQHandler
 1889 00c4 00000000 		.word	I2C2_EV_IRQHandler
 1890 00c8 00000000 		.word	I2C2_ER_IRQHandler
 1891 00cc 00000000 		.word	SPI1_IRQHandler
 1892 00d0 00000000 		.word	SPI2_IRQHandler
 1893 00d4 00000000 		.word	USART1_IRQHandler
 1894 00d8 00000000 		.word	USART2_IRQHandler
 1895 00dc 00000000 		.word	USART3_IRQHandler
 1896 00e0 00000000 		.word	EXTI15_10_IRQHandler
 1897 00e4 00000000 		.word	RTC_Alarm_IRQHandler
 1898 00e8 00000000 		.word	USBWakeUp_IRQHandler
 1899 00ec 00000000 		.word	0
 1900 00f0 00000000 		.word	0
 1901 00f4 00000000 		.word	0
 1902 00f8 00000000 		.word	0
 1903 00fc 00000000 		.word	0
 1904 0100 00000000 		.word	0
 1905 0104 00000000 		.word	0
 1906 0108 00000000 		.word	BootRAM
 1907              		.text
 1908              	.Letext0:
 1909              		.file 2 "d:\\3.tools\\arm_gcc_toolchain\\arm-none-eabi\\include\\machine\\_default_types.h"
 1910              		.file 3 "d:\\3.tools\\arm_gcc_toolchain\\arm-none-eabi\\include\\sys\\_stdint.h"
 1911              		.file 4 "Drivers/CMSIS/Device/ST/STM32F1xx/Include/stm32f103xb.h"
 1912              		.file 5 "Drivers/STM32F1xx_HAL_Driver/Inc/stm32f1xx_hal_def.h"
 1913              		.file 6 "Drivers/STM32F1xx_HAL_Driver/Inc/stm32f1xx_hal_dma.h"
 1914              		.file 7 "Drivers/STM32F1xx_HAL_Driver/Inc/stm32f1xx_hal_tim.h"
 1915              		.file 8 "Drivers/STM32F1xx_HAL_Driver/Inc/stm32f1xx_hal_uart.h"
 1916              		.file 9 "Core/Inc/main.h"
ARM GAS  C:\Users\jisu8\AppData\Local\Temp\ccupgUCl.s 			page 35

