ARM GAS  C:\Users\jisu8\AppData\Local\Temp\ccUMXDVa.s 			page 1


   1              		.cpu cortex-m3
   2              		.arch armv7-m
   3              		.fpu softvfp
   4              		.eabi_attribute 20, 1
   5              		.eabi_attribute 21, 1
   6              		.eabi_attribute 23, 3
   7              		.eabi_attribute 24, 1
   8              		.eabi_attribute 25, 1
   9              		.eabi_attribute 26, 1
  10              		.eabi_attribute 30, 1
  11              		.eabi_attribute 34, 1
  12              		.eabi_attribute 18, 4
  13              		.file	"startup_stm32f103xb.c"
  14              		.text
  15              	.Ltext0:
  16              		.cfi_sections	.debug_frame
  17              		.section	.text.Reset_Handler,"ax",%progbits
  18              		.align	1
  19              		.global	Reset_Handler
  20              		.syntax unified
  21              		.thumb
  22              		.thumb_func
  24              	Reset_Handler:
  25              	.LFB65:
  26              		.file 1 "startup_stm32f103xb.c"
   1:startup_stm32f103xb.c **** #include "stdint.h"
   2:startup_stm32f103xb.c **** #include "system_stm32f1xx.h"
   3:startup_stm32f103xb.c **** #include "stm32f1xx.h"
   4:startup_stm32f103xb.c **** #include "stm32f1xx_hal_def.h"
   5:startup_stm32f103xb.c **** #include "main.h"
   6:startup_stm32f103xb.c **** #include "os.h"
   7:startup_stm32f103xb.c **** 
   8:startup_stm32f103xb.c **** extern uint32_t _sidata;
   9:startup_stm32f103xb.c **** extern uint32_t _sdata;
  10:startup_stm32f103xb.c **** extern uint32_t _edata;
  11:startup_stm32f103xb.c **** extern uint32_t _sbss;
  12:startup_stm32f103xb.c **** extern uint32_t _ebss;
  13:startup_stm32f103xb.c **** extern uint32_t _estack;
  14:startup_stm32f103xb.c **** 
  15:startup_stm32f103xb.c **** extern void __libc_init_array();
  16:startup_stm32f103xb.c **** 
  17:startup_stm32f103xb.c **** void Reset_Handler()
  18:startup_stm32f103xb.c **** {
  27              		.loc 1 18 1 view -0
  28              		.cfi_startproc
  29              		@ args = 0, pretend = 0, frame = 0
  30              		@ frame_needed = 0, uses_anonymous_args = 0
  31 0000 08B5     		push	{r3, lr}
  32              	.LCFI0:
  33              		.cfi_def_cfa_offset 8
  34              		.cfi_offset 3, -8
  35              		.cfi_offset 14, -4
  19:startup_stm32f103xb.c ****     uint32_t *dataInit = &_sidata;
  36              		.loc 1 19 5 view .LVU1
  37              	.LVL0:
  20:startup_stm32f103xb.c ****     uint32_t *data = &_sdata;
  38              		.loc 1 20 5 view .LVU2
ARM GAS  C:\Users\jisu8\AppData\Local\Temp\ccUMXDVa.s 			page 2


  21:startup_stm32f103xb.c ****     while(data < &_edata)
  39              		.loc 1 21 5 view .LVU3
  20:startup_stm32f103xb.c ****     uint32_t *data = &_sdata;
  40              		.loc 1 20 15 is_stmt 0 view .LVU4
  41 0002 0C4B     		ldr	r3, .L8
  19:startup_stm32f103xb.c ****     uint32_t *dataInit = &_sidata;
  42              		.loc 1 19 15 view .LVU5
  43 0004 0C4A     		ldr	r2, .L8+4
  44              		.loc 1 21 10 view .LVU6
  45 0006 03E0     		b	.L2
  46              	.LVL1:
  47              	.L3:
  22:startup_stm32f103xb.c ****     {
  23:startup_stm32f103xb.c ****         *data++ = *dataInit++;
  48              		.loc 1 23 9 is_stmt 1 view .LVU7
  49              		.loc 1 23 19 is_stmt 0 view .LVU8
  50 0008 52F8041B 		ldr	r1, [r2], #4
  51              	.LVL2:
  52              		.loc 1 23 17 view .LVU9
  53 000c 43F8041B 		str	r1, [r3], #4
  54              	.LVL3:
  55              	.L2:
  21:startup_stm32f103xb.c ****     while(data < &_edata)
  56              		.loc 1 21 10 is_stmt 1 view .LVU10
  57 0010 0A49     		ldr	r1, .L8+8
  58 0012 8B42     		cmp	r3, r1
  59 0014 F8D3     		bcc	.L3
  24:startup_stm32f103xb.c ****     }
  25:startup_stm32f103xb.c **** 
  26:startup_stm32f103xb.c ****     uint32_t *bss = &_sbss;
  60              		.loc 1 26 15 is_stmt 0 view .LVU11
  61 0016 0A4B     		ldr	r3, .L8+12
  62              	.LVL4:
  63              		.loc 1 26 15 view .LVU12
  64 0018 02E0     		b	.L4
  65              	.LVL5:
  66              	.L5:
  27:startup_stm32f103xb.c ****     while(bss < &_ebss)
  28:startup_stm32f103xb.c ****     {
  29:startup_stm32f103xb.c ****         *bss++ = 0;
  67              		.loc 1 29 9 is_stmt 1 view .LVU13
  68              		.loc 1 29 16 is_stmt 0 view .LVU14
  69 001a 0022     		movs	r2, #0
  70 001c 43F8042B 		str	r2, [r3], #4
  71              	.LVL6:
  72              	.L4:
  27:startup_stm32f103xb.c ****     while(bss < &_ebss)
  73              		.loc 1 27 10 is_stmt 1 view .LVU15
  74 0020 084A     		ldr	r2, .L8+16
  75 0022 9342     		cmp	r3, r2
  76 0024 F9D3     		bcc	.L5
  30:startup_stm32f103xb.c ****     }
  31:startup_stm32f103xb.c **** 
  32:startup_stm32f103xb.c ****     SystemInit(); 
  77              		.loc 1 32 5 view .LVU16
  78 0026 FFF7FEFF 		bl	SystemInit
  79              	.LVL7:
ARM GAS  C:\Users\jisu8\AppData\Local\Temp\ccUMXDVa.s 			page 3


  33:startup_stm32f103xb.c ****     __libc_init_array();
  80              		.loc 1 33 5 view .LVU17
  81 002a FFF7FEFF 		bl	__libc_init_array
  82              	.LVL8:
  34:startup_stm32f103xb.c ****     main();
  83              		.loc 1 34 5 view .LVU18
  84 002e FFF7FEFF 		bl	main
  85              	.LVL9:
  86              	.L6:
  35:startup_stm32f103xb.c **** 
  36:startup_stm32f103xb.c ****     while (1);
  87              		.loc 1 36 5 discriminator 1 view .LVU19
  88              		.loc 1 36 14 discriminator 1 view .LVU20
  89              		.loc 1 36 11 discriminator 1 view .LVU21
  90 0032 FEE7     		b	.L6
  91              	.L9:
  92              		.align	2
  93              	.L8:
  94 0034 00000000 		.word	_sdata
  95 0038 00000000 		.word	_sidata
  96 003c 00000000 		.word	_edata
  97 0040 00000000 		.word	_sbss
  98 0044 00000000 		.word	_ebss
  99              		.cfi_endproc
 100              	.LFE65:
 102              		.section	.text.Default_Handler,"ax",%progbits
 103              		.align	1
 104              		.global	Default_Handler
 105              		.syntax unified
 106              		.thumb
 107              		.thumb_func
 109              	Default_Handler:
 110              	.LFB66:
  37:startup_stm32f103xb.c **** }
  38:startup_stm32f103xb.c **** 
  39:startup_stm32f103xb.c **** void Default_Handler(void)
  40:startup_stm32f103xb.c **** {
 111              		.loc 1 40 1 view -0
 112              		.cfi_startproc
 113              		@ Volatile: function does not return.
 114              		@ args = 0, pretend = 0, frame = 0
 115              		@ frame_needed = 0, uses_anonymous_args = 0
 116              		@ link register save eliminated.
 117              	.L11:
  41:startup_stm32f103xb.c ****     while (1);
 118              		.loc 1 41 5 discriminator 1 view .LVU23
 119              		.loc 1 41 14 discriminator 1 view .LVU24
 120              		.loc 1 41 11 discriminator 1 view .LVU25
 121 0000 FEE7     		b	.L11
 122              		.cfi_endproc
 123              	.LFE66:
 125              		.section	.text.NMI_Handler,"ax",%progbits
 126              		.align	1
 127              		.weak	NMI_Handler
 128              		.syntax unified
 129              		.thumb
 130              		.thumb_func
ARM GAS  C:\Users\jisu8\AppData\Local\Temp\ccUMXDVa.s 			page 4


 132              	NMI_Handler:
 133              	.LFB71:
  42:startup_stm32f103xb.c **** }
  43:startup_stm32f103xb.c **** 
  44:startup_stm32f103xb.c **** void TIM2_Handler(void)
  45:startup_stm32f103xb.c **** {
  46:startup_stm32f103xb.c ****     HAL_TIM_IRQHandler(&htim2);
  47:startup_stm32f103xb.c **** }
  48:startup_stm32f103xb.c **** 
  49:startup_stm32f103xb.c **** void TIM4_Handler(void)
  50:startup_stm32f103xb.c **** {
  51:startup_stm32f103xb.c ****     HAL_TIM_IRQHandler(&htim4);
  52:startup_stm32f103xb.c **** }
  53:startup_stm32f103xb.c **** 
  54:startup_stm32f103xb.c **** void UART2_Handler(void)
  55:startup_stm32f103xb.c **** {
  56:startup_stm32f103xb.c ****     HAL_UART_IRQHandler(&huart2);
  57:startup_stm32f103xb.c **** }
  58:startup_stm32f103xb.c **** 
  59:startup_stm32f103xb.c **** void SystemTick_Handler(void)
  60:startup_stm32f103xb.c **** {
  61:startup_stm32f103xb.c ****     /* USER CODE BEGIN SysTick_IRQn 0 */
  62:startup_stm32f103xb.c **** 
  63:startup_stm32f103xb.c ****     /* USER CODE END SysTick_IRQn 0 */
  64:startup_stm32f103xb.c ****     HAL_IncTick();
  65:startup_stm32f103xb.c ****     /* USER CODE BEGIN SysTick_IRQn 1 */
  66:startup_stm32f103xb.c ****     Os_Handler_1ms();
  67:startup_stm32f103xb.c ****     /* USER CODE END SysTick_IRQn 1 */
  68:startup_stm32f103xb.c **** }
  69:startup_stm32f103xb.c **** 
  70:startup_stm32f103xb.c **** __weak void NMI_Handler(void)                          {Default_Handler();}
 134              		.loc 1 70 56 view -0
 135              		.cfi_startproc
 136              		@ args = 0, pretend = 0, frame = 0
 137              		@ frame_needed = 0, uses_anonymous_args = 0
 138 0000 08B5     		push	{r3, lr}
 139              	.LCFI1:
 140              		.cfi_def_cfa_offset 8
 141              		.cfi_offset 3, -8
 142              		.cfi_offset 14, -4
 143              		.loc 1 70 57 view .LVU27
 144 0002 FFF7FEFF 		bl	Default_Handler
 145              	.LVL10:
 146              		.cfi_endproc
 147              	.LFE71:
 149              		.section	.text.HardFault_Handler,"ax",%progbits
 150              		.align	1
 151              		.weak	HardFault_Handler
 152              		.syntax unified
 153              		.thumb
 154              		.thumb_func
 156              	HardFault_Handler:
 157              	.LFB72:
  71:startup_stm32f103xb.c **** __weak void HardFault_Handler(void)                    {Default_Handler();}
 158              		.loc 1 71 56 view -0
 159              		.cfi_startproc
 160              		@ args = 0, pretend = 0, frame = 0
ARM GAS  C:\Users\jisu8\AppData\Local\Temp\ccUMXDVa.s 			page 5


 161              		@ frame_needed = 0, uses_anonymous_args = 0
 162 0000 08B5     		push	{r3, lr}
 163              	.LCFI2:
 164              		.cfi_def_cfa_offset 8
 165              		.cfi_offset 3, -8
 166              		.cfi_offset 14, -4
 167              		.loc 1 71 57 view .LVU29
 168 0002 FFF7FEFF 		bl	Default_Handler
 169              	.LVL11:
 170              		.cfi_endproc
 171              	.LFE72:
 173              		.section	.text.MemManage_Handler,"ax",%progbits
 174              		.align	1
 175              		.weak	MemManage_Handler
 176              		.syntax unified
 177              		.thumb
 178              		.thumb_func
 180              	MemManage_Handler:
 181              	.LFB73:
  72:startup_stm32f103xb.c **** __weak void MemManage_Handler(void)                    {Default_Handler();}
 182              		.loc 1 72 56 view -0
 183              		.cfi_startproc
 184              		@ args = 0, pretend = 0, frame = 0
 185              		@ frame_needed = 0, uses_anonymous_args = 0
 186 0000 08B5     		push	{r3, lr}
 187              	.LCFI3:
 188              		.cfi_def_cfa_offset 8
 189              		.cfi_offset 3, -8
 190              		.cfi_offset 14, -4
 191              		.loc 1 72 57 view .LVU31
 192 0002 FFF7FEFF 		bl	Default_Handler
 193              	.LVL12:
 194              		.cfi_endproc
 195              	.LFE73:
 197              		.section	.text.BusFault_Handler,"ax",%progbits
 198              		.align	1
 199              		.weak	BusFault_Handler
 200              		.syntax unified
 201              		.thumb
 202              		.thumb_func
 204              	BusFault_Handler:
 205              	.LFB74:
  73:startup_stm32f103xb.c **** __weak void BusFault_Handler(void)                     {Default_Handler();}
 206              		.loc 1 73 56 view -0
 207              		.cfi_startproc
 208              		@ args = 0, pretend = 0, frame = 0
 209              		@ frame_needed = 0, uses_anonymous_args = 0
 210 0000 08B5     		push	{r3, lr}
 211              	.LCFI4:
 212              		.cfi_def_cfa_offset 8
 213              		.cfi_offset 3, -8
 214              		.cfi_offset 14, -4
 215              		.loc 1 73 57 view .LVU33
 216 0002 FFF7FEFF 		bl	Default_Handler
 217              	.LVL13:
 218              		.cfi_endproc
 219              	.LFE74:
ARM GAS  C:\Users\jisu8\AppData\Local\Temp\ccUMXDVa.s 			page 6


 221              		.section	.text.UsageFault_Handler,"ax",%progbits
 222              		.align	1
 223              		.weak	UsageFault_Handler
 224              		.syntax unified
 225              		.thumb
 226              		.thumb_func
 228              	UsageFault_Handler:
 229              	.LFB75:
  74:startup_stm32f103xb.c **** __weak void UsageFault_Handler(void)                   {Default_Handler();}
 230              		.loc 1 74 56 view -0
 231              		.cfi_startproc
 232              		@ args = 0, pretend = 0, frame = 0
 233              		@ frame_needed = 0, uses_anonymous_args = 0
 234 0000 08B5     		push	{r3, lr}
 235              	.LCFI5:
 236              		.cfi_def_cfa_offset 8
 237              		.cfi_offset 3, -8
 238              		.cfi_offset 14, -4
 239              		.loc 1 74 57 view .LVU35
 240 0002 FFF7FEFF 		bl	Default_Handler
 241              	.LVL14:
 242              		.cfi_endproc
 243              	.LFE75:
 245              		.section	.text.SVC_Handler,"ax",%progbits
 246              		.align	1
 247              		.weak	SVC_Handler
 248              		.syntax unified
 249              		.thumb
 250              		.thumb_func
 252              	SVC_Handler:
 253              	.LFB76:
  75:startup_stm32f103xb.c **** __weak void SVC_Handler(void)                          {Default_Handler();}
 254              		.loc 1 75 56 view -0
 255              		.cfi_startproc
 256              		@ args = 0, pretend = 0, frame = 0
 257              		@ frame_needed = 0, uses_anonymous_args = 0
 258 0000 08B5     		push	{r3, lr}
 259              	.LCFI6:
 260              		.cfi_def_cfa_offset 8
 261              		.cfi_offset 3, -8
 262              		.cfi_offset 14, -4
 263              		.loc 1 75 57 view .LVU37
 264 0002 FFF7FEFF 		bl	Default_Handler
 265              	.LVL15:
 266              		.cfi_endproc
 267              	.LFE76:
 269              		.section	.text.DebugMon_Handler,"ax",%progbits
 270              		.align	1
 271              		.weak	DebugMon_Handler
 272              		.syntax unified
 273              		.thumb
 274              		.thumb_func
 276              	DebugMon_Handler:
 277              	.LFB77:
  76:startup_stm32f103xb.c **** __weak void DebugMon_Handler(void)                     {Default_Handler();}
 278              		.loc 1 76 56 view -0
 279              		.cfi_startproc
ARM GAS  C:\Users\jisu8\AppData\Local\Temp\ccUMXDVa.s 			page 7


 280              		@ args = 0, pretend = 0, frame = 0
 281              		@ frame_needed = 0, uses_anonymous_args = 0
 282 0000 08B5     		push	{r3, lr}
 283              	.LCFI7:
 284              		.cfi_def_cfa_offset 8
 285              		.cfi_offset 3, -8
 286              		.cfi_offset 14, -4
 287              		.loc 1 76 57 view .LVU39
 288 0002 FFF7FEFF 		bl	Default_Handler
 289              	.LVL16:
 290              		.cfi_endproc
 291              	.LFE77:
 293              		.section	.text.PendSV_Handler,"ax",%progbits
 294              		.align	1
 295              		.weak	PendSV_Handler
 296              		.syntax unified
 297              		.thumb
 298              		.thumb_func
 300              	PendSV_Handler:
 301              	.LFB78:
  77:startup_stm32f103xb.c **** __weak void PendSV_Handler(void)                       {Default_Handler();}
 302              		.loc 1 77 56 view -0
 303              		.cfi_startproc
 304              		@ args = 0, pretend = 0, frame = 0
 305              		@ frame_needed = 0, uses_anonymous_args = 0
 306 0000 08B5     		push	{r3, lr}
 307              	.LCFI8:
 308              		.cfi_def_cfa_offset 8
 309              		.cfi_offset 3, -8
 310              		.cfi_offset 14, -4
 311              		.loc 1 77 57 view .LVU41
 312 0002 FFF7FEFF 		bl	Default_Handler
 313              	.LVL17:
 314              		.cfi_endproc
 315              	.LFE78:
 317              		.section	.text.WWDG_IRQHandler,"ax",%progbits
 318              		.align	1
 319              		.weak	WWDG_IRQHandler
 320              		.syntax unified
 321              		.thumb
 322              		.thumb_func
 324              	WWDG_IRQHandler:
 325              	.LFB80:
  78:startup_stm32f103xb.c **** __weak void SysTick_Handler(void)                      {SystemTick_Handler();}
  79:startup_stm32f103xb.c **** __weak void WWDG_IRQHandler(void)                      {Default_Handler();}  
 326              		.loc 1 79 56 view -0
 327              		.cfi_startproc
 328              		@ args = 0, pretend = 0, frame = 0
 329              		@ frame_needed = 0, uses_anonymous_args = 0
 330 0000 08B5     		push	{r3, lr}
 331              	.LCFI9:
 332              		.cfi_def_cfa_offset 8
 333              		.cfi_offset 3, -8
 334              		.cfi_offset 14, -4
 335              		.loc 1 79 57 view .LVU43
 336 0002 FFF7FEFF 		bl	Default_Handler
 337              	.LVL18:
ARM GAS  C:\Users\jisu8\AppData\Local\Temp\ccUMXDVa.s 			page 8


 338              		.cfi_endproc
 339              	.LFE80:
 341              		.section	.text.PVD_IRQHandler,"ax",%progbits
 342              		.align	1
 343              		.weak	PVD_IRQHandler
 344              		.syntax unified
 345              		.thumb
 346              		.thumb_func
 348              	PVD_IRQHandler:
 349              	.LFB81:
  80:startup_stm32f103xb.c **** __weak void PVD_IRQHandler(void)                       {Default_Handler();} 
 350              		.loc 1 80 56 view -0
 351              		.cfi_startproc
 352              		@ args = 0, pretend = 0, frame = 0
 353              		@ frame_needed = 0, uses_anonymous_args = 0
 354 0000 08B5     		push	{r3, lr}
 355              	.LCFI10:
 356              		.cfi_def_cfa_offset 8
 357              		.cfi_offset 3, -8
 358              		.cfi_offset 14, -4
 359              		.loc 1 80 57 view .LVU45
 360 0002 FFF7FEFF 		bl	Default_Handler
 361              	.LVL19:
 362              		.cfi_endproc
 363              	.LFE81:
 365              		.section	.text.TAMPER_IRQHandler,"ax",%progbits
 366              		.align	1
 367              		.weak	TAMPER_IRQHandler
 368              		.syntax unified
 369              		.thumb
 370              		.thumb_func
 372              	TAMPER_IRQHandler:
 373              	.LFB82:
  81:startup_stm32f103xb.c **** __weak void TAMPER_IRQHandler(void)                    {Default_Handler();}             
 374              		.loc 1 81 56 view -0
 375              		.cfi_startproc
 376              		@ args = 0, pretend = 0, frame = 0
 377              		@ frame_needed = 0, uses_anonymous_args = 0
 378 0000 08B5     		push	{r3, lr}
 379              	.LCFI11:
 380              		.cfi_def_cfa_offset 8
 381              		.cfi_offset 3, -8
 382              		.cfi_offset 14, -4
 383              		.loc 1 81 57 view .LVU47
 384 0002 FFF7FEFF 		bl	Default_Handler
 385              	.LVL20:
 386              		.cfi_endproc
 387              	.LFE82:
 389              		.section	.text.RTC_IRQHandler,"ax",%progbits
 390              		.align	1
 391              		.weak	RTC_IRQHandler
 392              		.syntax unified
 393              		.thumb
 394              		.thumb_func
 396              	RTC_IRQHandler:
 397              	.LFB83:
  82:startup_stm32f103xb.c **** __weak void RTC_IRQHandler(void)                       {Default_Handler();}            
ARM GAS  C:\Users\jisu8\AppData\Local\Temp\ccUMXDVa.s 			page 9


 398              		.loc 1 82 56 view -0
 399              		.cfi_startproc
 400              		@ args = 0, pretend = 0, frame = 0
 401              		@ frame_needed = 0, uses_anonymous_args = 0
 402 0000 08B5     		push	{r3, lr}
 403              	.LCFI12:
 404              		.cfi_def_cfa_offset 8
 405              		.cfi_offset 3, -8
 406              		.cfi_offset 14, -4
 407              		.loc 1 82 57 view .LVU49
 408 0002 FFF7FEFF 		bl	Default_Handler
 409              	.LVL21:
 410              		.cfi_endproc
 411              	.LFE83:
 413              		.section	.text.FLASH_IRQHandler,"ax",%progbits
 414              		.align	1
 415              		.weak	FLASH_IRQHandler
 416              		.syntax unified
 417              		.thumb
 418              		.thumb_func
 420              	FLASH_IRQHandler:
 421              	.LFB84:
  83:startup_stm32f103xb.c **** __weak void FLASH_IRQHandler(void)                     {Default_Handler();}                  
 422              		.loc 1 83 56 view -0
 423              		.cfi_startproc
 424              		@ args = 0, pretend = 0, frame = 0
 425              		@ frame_needed = 0, uses_anonymous_args = 0
 426 0000 08B5     		push	{r3, lr}
 427              	.LCFI13:
 428              		.cfi_def_cfa_offset 8
 429              		.cfi_offset 3, -8
 430              		.cfi_offset 14, -4
 431              		.loc 1 83 57 view .LVU51
 432 0002 FFF7FEFF 		bl	Default_Handler
 433              	.LVL22:
 434              		.cfi_endproc
 435              	.LFE84:
 437              		.section	.text.RCC_IRQHandler,"ax",%progbits
 438              		.align	1
 439              		.weak	RCC_IRQHandler
 440              		.syntax unified
 441              		.thumb
 442              		.thumb_func
 444              	RCC_IRQHandler:
 445              	.LFB85:
  84:startup_stm32f103xb.c **** __weak void RCC_IRQHandler(void)                       {Default_Handler();}
 446              		.loc 1 84 56 view -0
 447              		.cfi_startproc
 448              		@ args = 0, pretend = 0, frame = 0
 449              		@ frame_needed = 0, uses_anonymous_args = 0
 450 0000 08B5     		push	{r3, lr}
 451              	.LCFI14:
 452              		.cfi_def_cfa_offset 8
 453              		.cfi_offset 3, -8
 454              		.cfi_offset 14, -4
 455              		.loc 1 84 57 view .LVU53
 456 0002 FFF7FEFF 		bl	Default_Handler
ARM GAS  C:\Users\jisu8\AppData\Local\Temp\ccUMXDVa.s 			page 10


 457              	.LVL23:
 458              		.cfi_endproc
 459              	.LFE85:
 461              		.section	.text.EXTI0_IRQHandler,"ax",%progbits
 462              		.align	1
 463              		.weak	EXTI0_IRQHandler
 464              		.syntax unified
 465              		.thumb
 466              		.thumb_func
 468              	EXTI0_IRQHandler:
 469              	.LFB86:
  85:startup_stm32f103xb.c **** __weak void EXTI0_IRQHandler(void)                     {Default_Handler();}  
 470              		.loc 1 85 56 view -0
 471              		.cfi_startproc
 472              		@ args = 0, pretend = 0, frame = 0
 473              		@ frame_needed = 0, uses_anonymous_args = 0
 474 0000 08B5     		push	{r3, lr}
 475              	.LCFI15:
 476              		.cfi_def_cfa_offset 8
 477              		.cfi_offset 3, -8
 478              		.cfi_offset 14, -4
 479              		.loc 1 85 57 view .LVU55
 480 0002 FFF7FEFF 		bl	Default_Handler
 481              	.LVL24:
 482              		.cfi_endproc
 483              	.LFE86:
 485              		.section	.text.EXTI1_IRQHandler,"ax",%progbits
 486              		.align	1
 487              		.weak	EXTI1_IRQHandler
 488              		.syntax unified
 489              		.thumb
 490              		.thumb_func
 492              	EXTI1_IRQHandler:
 493              	.LFB87:
  86:startup_stm32f103xb.c **** __weak void EXTI1_IRQHandler(void)                     {Default_Handler();}  
 494              		.loc 1 86 56 view -0
 495              		.cfi_startproc
 496              		@ args = 0, pretend = 0, frame = 0
 497              		@ frame_needed = 0, uses_anonymous_args = 0
 498 0000 08B5     		push	{r3, lr}
 499              	.LCFI16:
 500              		.cfi_def_cfa_offset 8
 501              		.cfi_offset 3, -8
 502              		.cfi_offset 14, -4
 503              		.loc 1 86 57 view .LVU57
 504 0002 FFF7FEFF 		bl	Default_Handler
 505              	.LVL25:
 506              		.cfi_endproc
 507              	.LFE87:
 509              		.section	.text.EXTI2_IRQHandler,"ax",%progbits
 510              		.align	1
 511              		.weak	EXTI2_IRQHandler
 512              		.syntax unified
 513              		.thumb
 514              		.thumb_func
 516              	EXTI2_IRQHandler:
 517              	.LFB88:
ARM GAS  C:\Users\jisu8\AppData\Local\Temp\ccUMXDVa.s 			page 11


  87:startup_stm32f103xb.c **** __weak void EXTI2_IRQHandler(void)                     {Default_Handler();}  
 518              		.loc 1 87 56 view -0
 519              		.cfi_startproc
 520              		@ args = 0, pretend = 0, frame = 0
 521              		@ frame_needed = 0, uses_anonymous_args = 0
 522 0000 08B5     		push	{r3, lr}
 523              	.LCFI17:
 524              		.cfi_def_cfa_offset 8
 525              		.cfi_offset 3, -8
 526              		.cfi_offset 14, -4
 527              		.loc 1 87 57 view .LVU59
 528 0002 FFF7FEFF 		bl	Default_Handler
 529              	.LVL26:
 530              		.cfi_endproc
 531              	.LFE88:
 533              		.section	.text.EXTI3_IRQHandler,"ax",%progbits
 534              		.align	1
 535              		.weak	EXTI3_IRQHandler
 536              		.syntax unified
 537              		.thumb
 538              		.thumb_func
 540              	EXTI3_IRQHandler:
 541              	.LFB89:
  88:startup_stm32f103xb.c **** __weak void EXTI3_IRQHandler(void)                     {Default_Handler();}  
 542              		.loc 1 88 56 view -0
 543              		.cfi_startproc
 544              		@ args = 0, pretend = 0, frame = 0
 545              		@ frame_needed = 0, uses_anonymous_args = 0
 546 0000 08B5     		push	{r3, lr}
 547              	.LCFI18:
 548              		.cfi_def_cfa_offset 8
 549              		.cfi_offset 3, -8
 550              		.cfi_offset 14, -4
 551              		.loc 1 88 57 view .LVU61
 552 0002 FFF7FEFF 		bl	Default_Handler
 553              	.LVL27:
 554              		.cfi_endproc
 555              	.LFE89:
 557              		.section	.text.EXTI4_IRQHandler,"ax",%progbits
 558              		.align	1
 559              		.weak	EXTI4_IRQHandler
 560              		.syntax unified
 561              		.thumb
 562              		.thumb_func
 564              	EXTI4_IRQHandler:
 565              	.LFB90:
  89:startup_stm32f103xb.c **** __weak void EXTI4_IRQHandler(void)                     {Default_Handler();}  
 566              		.loc 1 89 56 view -0
 567              		.cfi_startproc
 568              		@ args = 0, pretend = 0, frame = 0
 569              		@ frame_needed = 0, uses_anonymous_args = 0
 570 0000 08B5     		push	{r3, lr}
 571              	.LCFI19:
 572              		.cfi_def_cfa_offset 8
 573              		.cfi_offset 3, -8
 574              		.cfi_offset 14, -4
 575              		.loc 1 89 57 view .LVU63
ARM GAS  C:\Users\jisu8\AppData\Local\Temp\ccUMXDVa.s 			page 12


 576 0002 FFF7FEFF 		bl	Default_Handler
 577              	.LVL28:
 578              		.cfi_endproc
 579              	.LFE90:
 581              		.section	.text.DMA1_Channel1_IRQHandler,"ax",%progbits
 582              		.align	1
 583              		.weak	DMA1_Channel1_IRQHandler
 584              		.syntax unified
 585              		.thumb
 586              		.thumb_func
 588              	DMA1_Channel1_IRQHandler:
 589              	.LFB91:
  90:startup_stm32f103xb.c **** __weak void DMA1_Channel1_IRQHandler(void)             {Default_Handler();}
 590              		.loc 1 90 56 view -0
 591              		.cfi_startproc
 592              		@ args = 0, pretend = 0, frame = 0
 593              		@ frame_needed = 0, uses_anonymous_args = 0
 594 0000 08B5     		push	{r3, lr}
 595              	.LCFI20:
 596              		.cfi_def_cfa_offset 8
 597              		.cfi_offset 3, -8
 598              		.cfi_offset 14, -4
 599              		.loc 1 90 57 view .LVU65
 600 0002 FFF7FEFF 		bl	Default_Handler
 601              	.LVL29:
 602              		.cfi_endproc
 603              	.LFE91:
 605              		.section	.text.DMA1_Channel2_IRQHandler,"ax",%progbits
 606              		.align	1
 607              		.weak	DMA1_Channel2_IRQHandler
 608              		.syntax unified
 609              		.thumb
 610              		.thumb_func
 612              	DMA1_Channel2_IRQHandler:
 613              	.LFB92:
  91:startup_stm32f103xb.c **** __weak void DMA1_Channel2_IRQHandler(void)             {Default_Handler();}
 614              		.loc 1 91 56 view -0
 615              		.cfi_startproc
 616              		@ args = 0, pretend = 0, frame = 0
 617              		@ frame_needed = 0, uses_anonymous_args = 0
 618 0000 08B5     		push	{r3, lr}
 619              	.LCFI21:
 620              		.cfi_def_cfa_offset 8
 621              		.cfi_offset 3, -8
 622              		.cfi_offset 14, -4
 623              		.loc 1 91 57 view .LVU67
 624 0002 FFF7FEFF 		bl	Default_Handler
 625              	.LVL30:
 626              		.cfi_endproc
 627              	.LFE92:
 629              		.section	.text.DMA1_Channel3_IRQHandler,"ax",%progbits
 630              		.align	1
 631              		.weak	DMA1_Channel3_IRQHandler
 632              		.syntax unified
 633              		.thumb
 634              		.thumb_func
 636              	DMA1_Channel3_IRQHandler:
ARM GAS  C:\Users\jisu8\AppData\Local\Temp\ccUMXDVa.s 			page 13


 637              	.LFB93:
  92:startup_stm32f103xb.c **** __weak void DMA1_Channel3_IRQHandler(void)             {Default_Handler();}
 638              		.loc 1 92 56 view -0
 639              		.cfi_startproc
 640              		@ args = 0, pretend = 0, frame = 0
 641              		@ frame_needed = 0, uses_anonymous_args = 0
 642 0000 08B5     		push	{r3, lr}
 643              	.LCFI22:
 644              		.cfi_def_cfa_offset 8
 645              		.cfi_offset 3, -8
 646              		.cfi_offset 14, -4
 647              		.loc 1 92 57 view .LVU69
 648 0002 FFF7FEFF 		bl	Default_Handler
 649              	.LVL31:
 650              		.cfi_endproc
 651              	.LFE93:
 653              		.section	.text.DMA1_Channel4_IRQHandler,"ax",%progbits
 654              		.align	1
 655              		.weak	DMA1_Channel4_IRQHandler
 656              		.syntax unified
 657              		.thumb
 658              		.thumb_func
 660              	DMA1_Channel4_IRQHandler:
 661              	.LFB94:
  93:startup_stm32f103xb.c **** __weak void DMA1_Channel4_IRQHandler(void)             {Default_Handler();}
 662              		.loc 1 93 56 view -0
 663              		.cfi_startproc
 664              		@ args = 0, pretend = 0, frame = 0
 665              		@ frame_needed = 0, uses_anonymous_args = 0
 666 0000 08B5     		push	{r3, lr}
 667              	.LCFI23:
 668              		.cfi_def_cfa_offset 8
 669              		.cfi_offset 3, -8
 670              		.cfi_offset 14, -4
 671              		.loc 1 93 57 view .LVU71
 672 0002 FFF7FEFF 		bl	Default_Handler
 673              	.LVL32:
 674              		.cfi_endproc
 675              	.LFE94:
 677              		.section	.text.DMA1_Channel5_IRQHandler,"ax",%progbits
 678              		.align	1
 679              		.weak	DMA1_Channel5_IRQHandler
 680              		.syntax unified
 681              		.thumb
 682              		.thumb_func
 684              	DMA1_Channel5_IRQHandler:
 685              	.LFB95:
  94:startup_stm32f103xb.c **** __weak void DMA1_Channel5_IRQHandler(void)             {Default_Handler();}
 686              		.loc 1 94 56 view -0
 687              		.cfi_startproc
 688              		@ args = 0, pretend = 0, frame = 0
 689              		@ frame_needed = 0, uses_anonymous_args = 0
 690 0000 08B5     		push	{r3, lr}
 691              	.LCFI24:
 692              		.cfi_def_cfa_offset 8
 693              		.cfi_offset 3, -8
 694              		.cfi_offset 14, -4
ARM GAS  C:\Users\jisu8\AppData\Local\Temp\ccUMXDVa.s 			page 14


 695              		.loc 1 94 57 view .LVU73
 696 0002 FFF7FEFF 		bl	Default_Handler
 697              	.LVL33:
 698              		.cfi_endproc
 699              	.LFE95:
 701              		.section	.text.DMA1_Channel6_IRQHandler,"ax",%progbits
 702              		.align	1
 703              		.weak	DMA1_Channel6_IRQHandler
 704              		.syntax unified
 705              		.thumb
 706              		.thumb_func
 708              	DMA1_Channel6_IRQHandler:
 709              	.LFB96:
  95:startup_stm32f103xb.c **** __weak void DMA1_Channel6_IRQHandler(void)             {Default_Handler();}
 710              		.loc 1 95 56 view -0
 711              		.cfi_startproc
 712              		@ args = 0, pretend = 0, frame = 0
 713              		@ frame_needed = 0, uses_anonymous_args = 0
 714 0000 08B5     		push	{r3, lr}
 715              	.LCFI25:
 716              		.cfi_def_cfa_offset 8
 717              		.cfi_offset 3, -8
 718              		.cfi_offset 14, -4
 719              		.loc 1 95 57 view .LVU75
 720 0002 FFF7FEFF 		bl	Default_Handler
 721              	.LVL34:
 722              		.cfi_endproc
 723              	.LFE96:
 725              		.section	.text.DMA1_Channel7_IRQHandler,"ax",%progbits
 726              		.align	1
 727              		.weak	DMA1_Channel7_IRQHandler
 728              		.syntax unified
 729              		.thumb
 730              		.thumb_func
 732              	DMA1_Channel7_IRQHandler:
 733              	.LFB97:
  96:startup_stm32f103xb.c **** __weak void DMA1_Channel7_IRQHandler(void)             {Default_Handler();}          
 734              		.loc 1 96 56 view -0
 735              		.cfi_startproc
 736              		@ args = 0, pretend = 0, frame = 0
 737              		@ frame_needed = 0, uses_anonymous_args = 0
 738 0000 08B5     		push	{r3, lr}
 739              	.LCFI26:
 740              		.cfi_def_cfa_offset 8
 741              		.cfi_offset 3, -8
 742              		.cfi_offset 14, -4
 743              		.loc 1 96 57 view .LVU77
 744 0002 FFF7FEFF 		bl	Default_Handler
 745              	.LVL35:
 746              		.cfi_endproc
 747              	.LFE97:
 749              		.section	.text.ADC1_2_IRQHandler,"ax",%progbits
 750              		.align	1
 751              		.weak	ADC1_2_IRQHandler
 752              		.syntax unified
 753              		.thumb
 754              		.thumb_func
ARM GAS  C:\Users\jisu8\AppData\Local\Temp\ccUMXDVa.s 			page 15


 756              	ADC1_2_IRQHandler:
 757              	.LFB98:
  97:startup_stm32f103xb.c **** __weak void ADC1_IRQHandler(void)                      {Default_Handler();} 
 758              		.loc 1 97 56 view -0
 759              		.cfi_startproc
 760              		@ args = 0, pretend = 0, frame = 0
 761              		@ frame_needed = 0, uses_anonymous_args = 0
 762 0000 08B5     		push	{r3, lr}
 763              	.LCFI27:
 764              		.cfi_def_cfa_offset 8
 765              		.cfi_offset 3, -8
 766              		.cfi_offset 14, -4
 767              		.loc 1 97 57 view .LVU79
 768 0002 FFF7FEFF 		bl	Default_Handler
 769              	.LVL36:
 770              		.cfi_endproc
 771              	.LFE98:
 773              		.section	.text.USB_HP_CAN1_TX_IRQHandler,"ax",%progbits
 774              		.align	1
 775              		.weak	USB_HP_CAN1_TX_IRQHandler
 776              		.syntax unified
 777              		.thumb
 778              		.thumb_func
 780              	USB_HP_CAN1_TX_IRQHandler:
 781              	.LFB99:
  98:startup_stm32f103xb.c **** __weak void USB_HP_CAN1_TX_IRQHandler(void)            {Default_Handler();} 
 782              		.loc 1 98 56 view -0
 783              		.cfi_startproc
 784              		@ args = 0, pretend = 0, frame = 0
 785              		@ frame_needed = 0, uses_anonymous_args = 0
 786 0000 08B5     		push	{r3, lr}
 787              	.LCFI28:
 788              		.cfi_def_cfa_offset 8
 789              		.cfi_offset 3, -8
 790              		.cfi_offset 14, -4
 791              		.loc 1 98 57 view .LVU81
 792 0002 FFF7FEFF 		bl	Default_Handler
 793              	.LVL37:
 794              		.cfi_endproc
 795              	.LFE99:
 797              		.section	.text.USB_LP_CAN1_RX0_IRQHandler,"ax",%progbits
 798              		.align	1
 799              		.weak	USB_LP_CAN1_RX0_IRQHandler
 800              		.syntax unified
 801              		.thumb
 802              		.thumb_func
 804              	USB_LP_CAN1_RX0_IRQHandler:
 805              	.LFB100:
  99:startup_stm32f103xb.c **** __weak void USB_LP_CAN1_RX0_IRQHandler(void)           {Default_Handler();}
 806              		.loc 1 99 56 view -0
 807              		.cfi_startproc
 808              		@ args = 0, pretend = 0, frame = 0
 809              		@ frame_needed = 0, uses_anonymous_args = 0
 810 0000 08B5     		push	{r3, lr}
 811              	.LCFI29:
 812              		.cfi_def_cfa_offset 8
 813              		.cfi_offset 3, -8
ARM GAS  C:\Users\jisu8\AppData\Local\Temp\ccUMXDVa.s 			page 16


 814              		.cfi_offset 14, -4
 815              		.loc 1 99 57 view .LVU83
 816 0002 FFF7FEFF 		bl	Default_Handler
 817              	.LVL38:
 818              		.cfi_endproc
 819              	.LFE100:
 821              		.section	.text.CAN1_RX1_IRQHandler,"ax",%progbits
 822              		.align	1
 823              		.weak	CAN1_RX1_IRQHandler
 824              		.syntax unified
 825              		.thumb
 826              		.thumb_func
 828              	CAN1_RX1_IRQHandler:
 829              	.LFB101:
 100:startup_stm32f103xb.c **** __weak void CAN1_RX1_IRQHandler(void)                  {Default_Handler();}
 830              		.loc 1 100 56 view -0
 831              		.cfi_startproc
 832              		@ args = 0, pretend = 0, frame = 0
 833              		@ frame_needed = 0, uses_anonymous_args = 0
 834 0000 08B5     		push	{r3, lr}
 835              	.LCFI30:
 836              		.cfi_def_cfa_offset 8
 837              		.cfi_offset 3, -8
 838              		.cfi_offset 14, -4
 839              		.loc 1 100 57 view .LVU85
 840 0002 FFF7FEFF 		bl	Default_Handler
 841              	.LVL39:
 842              		.cfi_endproc
 843              	.LFE101:
 845              		.section	.text.CAN1_SCE_IRQHandler,"ax",%progbits
 846              		.align	1
 847              		.weak	CAN1_SCE_IRQHandler
 848              		.syntax unified
 849              		.thumb
 850              		.thumb_func
 852              	CAN1_SCE_IRQHandler:
 853              	.LFB102:
 101:startup_stm32f103xb.c **** __weak void CAN1_SCE_IRQHandler(void)                  {Default_Handler();}
 854              		.loc 1 101 56 view -0
 855              		.cfi_startproc
 856              		@ args = 0, pretend = 0, frame = 0
 857              		@ frame_needed = 0, uses_anonymous_args = 0
 858 0000 08B5     		push	{r3, lr}
 859              	.LCFI31:
 860              		.cfi_def_cfa_offset 8
 861              		.cfi_offset 3, -8
 862              		.cfi_offset 14, -4
 863              		.loc 1 101 57 view .LVU87
 864 0002 FFF7FEFF 		bl	Default_Handler
 865              	.LVL40:
 866              		.cfi_endproc
 867              	.LFE102:
 869              		.section	.text.EXTI9_5_IRQHandler,"ax",%progbits
 870              		.align	1
 871              		.weak	EXTI9_5_IRQHandler
 872              		.syntax unified
 873              		.thumb
ARM GAS  C:\Users\jisu8\AppData\Local\Temp\ccUMXDVa.s 			page 17


 874              		.thumb_func
 876              	EXTI9_5_IRQHandler:
 877              	.LFB103:
 102:startup_stm32f103xb.c **** __weak void EXTI9_5_IRQHandler(void)                   {Default_Handler();}
 878              		.loc 1 102 56 view -0
 879              		.cfi_startproc
 880              		@ args = 0, pretend = 0, frame = 0
 881              		@ frame_needed = 0, uses_anonymous_args = 0
 882 0000 08B5     		push	{r3, lr}
 883              	.LCFI32:
 884              		.cfi_def_cfa_offset 8
 885              		.cfi_offset 3, -8
 886              		.cfi_offset 14, -4
 887              		.loc 1 102 57 view .LVU89
 888 0002 FFF7FEFF 		bl	Default_Handler
 889              	.LVL41:
 890              		.cfi_endproc
 891              	.LFE103:
 893              		.section	.text.TIM1_BRK_IRQHandler,"ax",%progbits
 894              		.align	1
 895              		.weak	TIM1_BRK_IRQHandler
 896              		.syntax unified
 897              		.thumb
 898              		.thumb_func
 900              	TIM1_BRK_IRQHandler:
 901              	.LFB104:
 103:startup_stm32f103xb.c **** __weak void TIM1_BRK_IRQHandler(void)                  {Default_Handler();}
 902              		.loc 1 103 56 view -0
 903              		.cfi_startproc
 904              		@ args = 0, pretend = 0, frame = 0
 905              		@ frame_needed = 0, uses_anonymous_args = 0
 906 0000 08B5     		push	{r3, lr}
 907              	.LCFI33:
 908              		.cfi_def_cfa_offset 8
 909              		.cfi_offset 3, -8
 910              		.cfi_offset 14, -4
 911              		.loc 1 103 57 view .LVU91
 912 0002 FFF7FEFF 		bl	Default_Handler
 913              	.LVL42:
 914              		.cfi_endproc
 915              	.LFE104:
 917              		.section	.text.TIM1_UP_IRQHandler,"ax",%progbits
 918              		.align	1
 919              		.weak	TIM1_UP_IRQHandler
 920              		.syntax unified
 921              		.thumb
 922              		.thumb_func
 924              	TIM1_UP_IRQHandler:
 925              	.LFB105:
 104:startup_stm32f103xb.c **** __weak void TIM1_UP_IRQHandler(void)                   {Default_Handler();}
 926              		.loc 1 104 56 view -0
 927              		.cfi_startproc
 928              		@ args = 0, pretend = 0, frame = 0
 929              		@ frame_needed = 0, uses_anonymous_args = 0
 930 0000 08B5     		push	{r3, lr}
 931              	.LCFI34:
 932              		.cfi_def_cfa_offset 8
ARM GAS  C:\Users\jisu8\AppData\Local\Temp\ccUMXDVa.s 			page 18


 933              		.cfi_offset 3, -8
 934              		.cfi_offset 14, -4
 935              		.loc 1 104 57 view .LVU93
 936 0002 FFF7FEFF 		bl	Default_Handler
 937              	.LVL43:
 938              		.cfi_endproc
 939              	.LFE105:
 941              		.section	.text.TIM1_TRG_COM_IRQHandler,"ax",%progbits
 942              		.align	1
 943              		.weak	TIM1_TRG_COM_IRQHandler
 944              		.syntax unified
 945              		.thumb
 946              		.thumb_func
 948              	TIM1_TRG_COM_IRQHandler:
 949              	.LFB106:
 105:startup_stm32f103xb.c **** __weak void TIM1_TRG_COM_IRQHandler(void)              {Default_Handler();}                 
 950              		.loc 1 105 56 view -0
 951              		.cfi_startproc
 952              		@ args = 0, pretend = 0, frame = 0
 953              		@ frame_needed = 0, uses_anonymous_args = 0
 954 0000 08B5     		push	{r3, lr}
 955              	.LCFI35:
 956              		.cfi_def_cfa_offset 8
 957              		.cfi_offset 3, -8
 958              		.cfi_offset 14, -4
 959              		.loc 1 105 57 view .LVU95
 960 0002 FFF7FEFF 		bl	Default_Handler
 961              	.LVL44:
 962              		.cfi_endproc
 963              	.LFE106:
 965              		.section	.text.TIM1_CC_IRQHandler,"ax",%progbits
 966              		.align	1
 967              		.weak	TIM1_CC_IRQHandler
 968              		.syntax unified
 969              		.thumb
 970              		.thumb_func
 972              	TIM1_CC_IRQHandler:
 973              	.LFB108:
 106:startup_stm32f103xb.c **** __weak void TIM1_BRK_UP_TRG_COM_IRQHandler(void)       {Default_Handler();}    
 107:startup_stm32f103xb.c **** __weak void TIM1_CC_IRQHandler(void)                   {Default_Handler();}               
 974              		.loc 1 107 56 view -0
 975              		.cfi_startproc
 976              		@ args = 0, pretend = 0, frame = 0
 977              		@ frame_needed = 0, uses_anonymous_args = 0
 978 0000 08B5     		push	{r3, lr}
 979              	.LCFI36:
 980              		.cfi_def_cfa_offset 8
 981              		.cfi_offset 3, -8
 982              		.cfi_offset 14, -4
 983              		.loc 1 107 57 view .LVU97
 984 0002 FFF7FEFF 		bl	Default_Handler
 985              	.LVL45:
 986              		.cfi_endproc
 987              	.LFE108:
 989              		.section	.text.TIM3_IRQHandler,"ax",%progbits
 990              		.align	1
 991              		.weak	TIM3_IRQHandler
ARM GAS  C:\Users\jisu8\AppData\Local\Temp\ccUMXDVa.s 			page 19


 992              		.syntax unified
 993              		.thumb
 994              		.thumb_func
 996              	TIM3_IRQHandler:
 997              	.LFB109:
 108:startup_stm32f103xb.c **** __weak void TIM3_IRQHandler(void)                      {Default_Handler();}                
 998              		.loc 1 108 56 view -0
 999              		.cfi_startproc
 1000              		@ args = 0, pretend = 0, frame = 0
 1001              		@ frame_needed = 0, uses_anonymous_args = 0
 1002 0000 08B5     		push	{r3, lr}
 1003              	.LCFI37:
 1004              		.cfi_def_cfa_offset 8
 1005              		.cfi_offset 3, -8
 1006              		.cfi_offset 14, -4
 1007              		.loc 1 108 57 view .LVU99
 1008 0002 FFF7FEFF 		bl	Default_Handler
 1009              	.LVL46:
 1010              		.cfi_endproc
 1011              	.LFE109:
 1013              		.section	.text.I2C1_EV_IRQHandler,"ax",%progbits
 1014              		.align	1
 1015              		.weak	I2C1_EV_IRQHandler
 1016              		.syntax unified
 1017              		.thumb
 1018              		.thumb_func
 1020              	I2C1_EV_IRQHandler:
 1021              	.LFB112:
 109:startup_stm32f103xb.c **** __weak void TIM2_IRQHandler(void)                      {TIM2_Handler();}               
 110:startup_stm32f103xb.c **** __weak void TIM4_IRQHandler(void)                      {TIM4_Handler();}     
 111:startup_stm32f103xb.c **** __weak void I2C1_EV_IRQHandler(void)                   {Default_Handler();} 
 1022              		.loc 1 111 56 view -0
 1023              		.cfi_startproc
 1024              		@ args = 0, pretend = 0, frame = 0
 1025              		@ frame_needed = 0, uses_anonymous_args = 0
 1026 0000 08B5     		push	{r3, lr}
 1027              	.LCFI38:
 1028              		.cfi_def_cfa_offset 8
 1029              		.cfi_offset 3, -8
 1030              		.cfi_offset 14, -4
 1031              		.loc 1 111 57 view .LVU101
 1032 0002 FFF7FEFF 		bl	Default_Handler
 1033              	.LVL47:
 1034              		.cfi_endproc
 1035              	.LFE112:
 1037              		.section	.text.I2C1_ER_IRQHandler,"ax",%progbits
 1038              		.align	1
 1039              		.weak	I2C1_ER_IRQHandler
 1040              		.syntax unified
 1041              		.thumb
 1042              		.thumb_func
 1044              	I2C1_ER_IRQHandler:
 1045              	.LFB113:
 112:startup_stm32f103xb.c **** __weak void I2C1_ER_IRQHandler(void)                   {Default_Handler();} 
 1046              		.loc 1 112 56 view -0
 1047              		.cfi_startproc
 1048              		@ args = 0, pretend = 0, frame = 0
ARM GAS  C:\Users\jisu8\AppData\Local\Temp\ccUMXDVa.s 			page 20


 1049              		@ frame_needed = 0, uses_anonymous_args = 0
 1050 0000 08B5     		push	{r3, lr}
 1051              	.LCFI39:
 1052              		.cfi_def_cfa_offset 8
 1053              		.cfi_offset 3, -8
 1054              		.cfi_offset 14, -4
 1055              		.loc 1 112 57 view .LVU103
 1056 0002 FFF7FEFF 		bl	Default_Handler
 1057              	.LVL48:
 1058              		.cfi_endproc
 1059              	.LFE113:
 1061              		.section	.text.I2C2_EV_IRQHandler,"ax",%progbits
 1062              		.align	1
 1063              		.weak	I2C2_EV_IRQHandler
 1064              		.syntax unified
 1065              		.thumb
 1066              		.thumb_func
 1068              	I2C2_EV_IRQHandler:
 1069              	.LFB114:
 113:startup_stm32f103xb.c **** __weak void I2C2_EV_IRQHandler(void)                   {Default_Handler();} 
 1070              		.loc 1 113 56 view -0
 1071              		.cfi_startproc
 1072              		@ args = 0, pretend = 0, frame = 0
 1073              		@ frame_needed = 0, uses_anonymous_args = 0
 1074 0000 08B5     		push	{r3, lr}
 1075              	.LCFI40:
 1076              		.cfi_def_cfa_offset 8
 1077              		.cfi_offset 3, -8
 1078              		.cfi_offset 14, -4
 1079              		.loc 1 113 57 view .LVU105
 1080 0002 FFF7FEFF 		bl	Default_Handler
 1081              	.LVL49:
 1082              		.cfi_endproc
 1083              	.LFE114:
 1085              		.section	.text.I2C2_ER_IRQHandler,"ax",%progbits
 1086              		.align	1
 1087              		.weak	I2C2_ER_IRQHandler
 1088              		.syntax unified
 1089              		.thumb
 1090              		.thumb_func
 1092              	I2C2_ER_IRQHandler:
 1093              	.LFB115:
 114:startup_stm32f103xb.c **** __weak void I2C2_ER_IRQHandler(void)                   {Default_Handler();}              
 1094              		.loc 1 114 56 view -0
 1095              		.cfi_startproc
 1096              		@ args = 0, pretend = 0, frame = 0
 1097              		@ frame_needed = 0, uses_anonymous_args = 0
 1098 0000 08B5     		push	{r3, lr}
 1099              	.LCFI41:
 1100              		.cfi_def_cfa_offset 8
 1101              		.cfi_offset 3, -8
 1102              		.cfi_offset 14, -4
 1103              		.loc 1 114 57 view .LVU107
 1104 0002 FFF7FEFF 		bl	Default_Handler
 1105              	.LVL50:
 1106              		.cfi_endproc
 1107              	.LFE115:
ARM GAS  C:\Users\jisu8\AppData\Local\Temp\ccUMXDVa.s 			page 21


 1109              		.section	.text.SPI1_IRQHandler,"ax",%progbits
 1110              		.align	1
 1111              		.weak	SPI1_IRQHandler
 1112              		.syntax unified
 1113              		.thumb
 1114              		.thumb_func
 1116              	SPI1_IRQHandler:
 1117              	.LFB116:
 115:startup_stm32f103xb.c **** __weak void SPI1_IRQHandler(void)                      {Default_Handler();}             
 1118              		.loc 1 115 56 view -0
 1119              		.cfi_startproc
 1120              		@ args = 0, pretend = 0, frame = 0
 1121              		@ frame_needed = 0, uses_anonymous_args = 0
 1122 0000 08B5     		push	{r3, lr}
 1123              	.LCFI42:
 1124              		.cfi_def_cfa_offset 8
 1125              		.cfi_offset 3, -8
 1126              		.cfi_offset 14, -4
 1127              		.loc 1 115 57 view .LVU109
 1128 0002 FFF7FEFF 		bl	Default_Handler
 1129              	.LVL51:
 1130              		.cfi_endproc
 1131              	.LFE116:
 1133              		.section	.text.SPI2_IRQHandler,"ax",%progbits
 1134              		.align	1
 1135              		.weak	SPI2_IRQHandler
 1136              		.syntax unified
 1137              		.thumb
 1138              		.thumb_func
 1140              	SPI2_IRQHandler:
 1141              	.LFB117:
 116:startup_stm32f103xb.c **** __weak void SPI2_IRQHandler(void)                      {Default_Handler();}               
 1142              		.loc 1 116 56 view -0
 1143              		.cfi_startproc
 1144              		@ args = 0, pretend = 0, frame = 0
 1145              		@ frame_needed = 0, uses_anonymous_args = 0
 1146 0000 08B5     		push	{r3, lr}
 1147              	.LCFI43:
 1148              		.cfi_def_cfa_offset 8
 1149              		.cfi_offset 3, -8
 1150              		.cfi_offset 14, -4
 1151              		.loc 1 116 57 view .LVU111
 1152 0002 FFF7FEFF 		bl	Default_Handler
 1153              	.LVL52:
 1154              		.cfi_endproc
 1155              	.LFE117:
 1157              		.section	.text.USART1_IRQHandler,"ax",%progbits
 1158              		.align	1
 1159              		.weak	USART1_IRQHandler
 1160              		.syntax unified
 1161              		.thumb
 1162              		.thumb_func
 1164              	USART1_IRQHandler:
 1165              	.LFB118:
 117:startup_stm32f103xb.c **** __weak void USART1_IRQHandler(void)                    {Default_Handler();}              
 1166              		.loc 1 117 56 view -0
 1167              		.cfi_startproc
ARM GAS  C:\Users\jisu8\AppData\Local\Temp\ccUMXDVa.s 			page 22


 1168              		@ args = 0, pretend = 0, frame = 0
 1169              		@ frame_needed = 0, uses_anonymous_args = 0
 1170 0000 08B5     		push	{r3, lr}
 1171              	.LCFI44:
 1172              		.cfi_def_cfa_offset 8
 1173              		.cfi_offset 3, -8
 1174              		.cfi_offset 14, -4
 1175              		.loc 1 117 57 view .LVU113
 1176 0002 FFF7FEFF 		bl	Default_Handler
 1177              	.LVL53:
 1178              		.cfi_endproc
 1179              	.LFE118:
 1181              		.section	.text.USART3_IRQHandler,"ax",%progbits
 1182              		.align	1
 1183              		.weak	USART3_IRQHandler
 1184              		.syntax unified
 1185              		.thumb
 1186              		.thumb_func
 1188              	USART3_IRQHandler:
 1189              	.LFB120:
 118:startup_stm32f103xb.c **** __weak void USART2_IRQHandler(void)                    {UART2_Handler();}              
 119:startup_stm32f103xb.c **** __weak void USART3_IRQHandler(void)                    {Default_Handler();}              
 1190              		.loc 1 119 56 view -0
 1191              		.cfi_startproc
 1192              		@ args = 0, pretend = 0, frame = 0
 1193              		@ frame_needed = 0, uses_anonymous_args = 0
 1194 0000 08B5     		push	{r3, lr}
 1195              	.LCFI45:
 1196              		.cfi_def_cfa_offset 8
 1197              		.cfi_offset 3, -8
 1198              		.cfi_offset 14, -4
 1199              		.loc 1 119 57 view .LVU115
 1200 0002 FFF7FEFF 		bl	Default_Handler
 1201              	.LVL54:
 1202              		.cfi_endproc
 1203              	.LFE120:
 1205              		.section	.text.EXTI15_10_IRQHandler,"ax",%progbits
 1206              		.align	1
 1207              		.weak	EXTI15_10_IRQHandler
 1208              		.syntax unified
 1209              		.thumb
 1210              		.thumb_func
 1212              	EXTI15_10_IRQHandler:
 1213              	.LFB121:
 120:startup_stm32f103xb.c **** __weak void EXTI15_10_IRQHandler(void)                 {Default_Handler();} 
 1214              		.loc 1 120 56 view -0
 1215              		.cfi_startproc
 1216              		@ args = 0, pretend = 0, frame = 0
 1217              		@ frame_needed = 0, uses_anonymous_args = 0
 1218 0000 08B5     		push	{r3, lr}
 1219              	.LCFI46:
 1220              		.cfi_def_cfa_offset 8
 1221              		.cfi_offset 3, -8
 1222              		.cfi_offset 14, -4
 1223              		.loc 1 120 57 view .LVU117
 1224 0002 FFF7FEFF 		bl	Default_Handler
 1225              	.LVL55:
ARM GAS  C:\Users\jisu8\AppData\Local\Temp\ccUMXDVa.s 			page 23


 1226              		.cfi_endproc
 1227              	.LFE121:
 1229              		.section	.text.RTC_Alarm_IRQHandler,"ax",%progbits
 1230              		.align	1
 1231              		.weak	RTC_Alarm_IRQHandler
 1232              		.syntax unified
 1233              		.thumb
 1234              		.thumb_func
 1236              	RTC_Alarm_IRQHandler:
 1237              	.LFB122:
 121:startup_stm32f103xb.c **** __weak void RTC_Alarm_IRQHandler(void)                 {Default_Handler();} 
 1238              		.loc 1 121 56 view -0
 1239              		.cfi_startproc
 1240              		@ args = 0, pretend = 0, frame = 0
 1241              		@ frame_needed = 0, uses_anonymous_args = 0
 1242 0000 08B5     		push	{r3, lr}
 1243              	.LCFI47:
 1244              		.cfi_def_cfa_offset 8
 1245              		.cfi_offset 3, -8
 1246              		.cfi_offset 14, -4
 1247              		.loc 1 121 57 view .LVU119
 1248 0002 FFF7FEFF 		bl	Default_Handler
 1249              	.LVL56:
 1250              		.cfi_endproc
 1251              	.LFE122:
 1253              		.section	.text.USBWakeUp_IRQHandler,"ax",%progbits
 1254              		.align	1
 1255              		.weak	USBWakeUp_IRQHandler
 1256              		.syntax unified
 1257              		.thumb
 1258              		.thumb_func
 1260              	USBWakeUp_IRQHandler:
 1261              	.LFB123:
 122:startup_stm32f103xb.c **** __weak void USBWakeUp_IRQHandler(void)                 {Default_Handler();} 
 1262              		.loc 1 122 56 view -0
 1263              		.cfi_startproc
 1264              		@ args = 0, pretend = 0, frame = 0
 1265              		@ frame_needed = 0, uses_anonymous_args = 0
 1266 0000 08B5     		push	{r3, lr}
 1267              	.LCFI48:
 1268              		.cfi_def_cfa_offset 8
 1269              		.cfi_offset 3, -8
 1270              		.cfi_offset 14, -4
 1271              		.loc 1 122 57 view .LVU121
 1272 0002 FFF7FEFF 		bl	Default_Handler
 1273              	.LVL57:
 1274              		.cfi_endproc
 1275              	.LFE123:
 1277              		.section	.text.BootRAM,"ax",%progbits
 1278              		.align	1
 1279              		.weak	BootRAM
 1280              		.syntax unified
 1281              		.thumb
 1282              		.thumb_func
 1284              	BootRAM:
 1285              	.LFB124:
 123:startup_stm32f103xb.c **** __weak void BootRAM(void)                              {Default_Handler();} 
ARM GAS  C:\Users\jisu8\AppData\Local\Temp\ccUMXDVa.s 			page 24


 1286              		.loc 1 123 56 view -0
 1287              		.cfi_startproc
 1288              		@ args = 0, pretend = 0, frame = 0
 1289              		@ frame_needed = 0, uses_anonymous_args = 0
 1290 0000 08B5     		push	{r3, lr}
 1291              	.LCFI49:
 1292              		.cfi_def_cfa_offset 8
 1293              		.cfi_offset 3, -8
 1294              		.cfi_offset 14, -4
 1295              		.loc 1 123 57 view .LVU123
 1296 0002 FFF7FEFF 		bl	Default_Handler
 1297              	.LVL58:
 1298              		.cfi_endproc
 1299              	.LFE124:
 1301              		.section	.text.TIM2_Handler,"ax",%progbits
 1302              		.align	1
 1303              		.global	TIM2_Handler
 1304              		.syntax unified
 1305              		.thumb
 1306              		.thumb_func
 1308              	TIM2_Handler:
 1309              	.LFB67:
  45:startup_stm32f103xb.c ****     HAL_TIM_IRQHandler(&htim2);
 1310              		.loc 1 45 1 view -0
 1311              		.cfi_startproc
 1312              		@ args = 0, pretend = 0, frame = 0
 1313              		@ frame_needed = 0, uses_anonymous_args = 0
 1314 0000 08B5     		push	{r3, lr}
 1315              	.LCFI50:
 1316              		.cfi_def_cfa_offset 8
 1317              		.cfi_offset 3, -8
 1318              		.cfi_offset 14, -4
  46:startup_stm32f103xb.c **** }
 1319              		.loc 1 46 5 view .LVU125
 1320 0002 0248     		ldr	r0, .L112
 1321 0004 FFF7FEFF 		bl	HAL_TIM_IRQHandler
 1322              	.LVL59:
  47:startup_stm32f103xb.c **** 
 1323              		.loc 1 47 1 is_stmt 0 view .LVU126
 1324 0008 08BD     		pop	{r3, pc}
 1325              	.L113:
 1326 000a 00BF     		.align	2
 1327              	.L112:
 1328 000c 00000000 		.word	htim2
 1329              		.cfi_endproc
 1330              	.LFE67:
 1332              		.section	.text.TIM2_IRQHandler,"ax",%progbits
 1333              		.align	1
 1334              		.weak	TIM2_IRQHandler
 1335              		.syntax unified
 1336              		.thumb
 1337              		.thumb_func
 1339              	TIM2_IRQHandler:
 1340              	.LFB110:
 109:startup_stm32f103xb.c **** __weak void TIM4_IRQHandler(void)                      {TIM4_Handler();}     
 1341              		.loc 1 109 56 is_stmt 1 view -0
 1342              		.cfi_startproc
ARM GAS  C:\Users\jisu8\AppData\Local\Temp\ccUMXDVa.s 			page 25


 1343              		@ args = 0, pretend = 0, frame = 0
 1344              		@ frame_needed = 0, uses_anonymous_args = 0
 1345 0000 08B5     		push	{r3, lr}
 1346              	.LCFI51:
 1347              		.cfi_def_cfa_offset 8
 1348              		.cfi_offset 3, -8
 1349              		.cfi_offset 14, -4
 109:startup_stm32f103xb.c **** __weak void TIM4_IRQHandler(void)                      {TIM4_Handler();}     
 1350              		.loc 1 109 57 view .LVU128
 1351 0002 FFF7FEFF 		bl	TIM2_Handler
 1352              	.LVL60:
 109:startup_stm32f103xb.c **** __weak void TIM4_IRQHandler(void)                      {TIM4_Handler();}     
 1353              		.loc 1 109 72 is_stmt 0 view .LVU129
 1354 0006 08BD     		pop	{r3, pc}
 1355              		.cfi_endproc
 1356              	.LFE110:
 1358              		.section	.text.TIM4_Handler,"ax",%progbits
 1359              		.align	1
 1360              		.global	TIM4_Handler
 1361              		.syntax unified
 1362              		.thumb
 1363              		.thumb_func
 1365              	TIM4_Handler:
 1366              	.LFB68:
  50:startup_stm32f103xb.c ****     HAL_TIM_IRQHandler(&htim4);
 1367              		.loc 1 50 1 is_stmt 1 view -0
 1368              		.cfi_startproc
 1369              		@ args = 0, pretend = 0, frame = 0
 1370              		@ frame_needed = 0, uses_anonymous_args = 0
 1371 0000 08B5     		push	{r3, lr}
 1372              	.LCFI52:
 1373              		.cfi_def_cfa_offset 8
 1374              		.cfi_offset 3, -8
 1375              		.cfi_offset 14, -4
  51:startup_stm32f103xb.c **** }
 1376              		.loc 1 51 5 view .LVU131
 1377 0002 0248     		ldr	r0, .L118
 1378 0004 FFF7FEFF 		bl	HAL_TIM_IRQHandler
 1379              	.LVL61:
  52:startup_stm32f103xb.c **** 
 1380              		.loc 1 52 1 is_stmt 0 view .LVU132
 1381 0008 08BD     		pop	{r3, pc}
 1382              	.L119:
 1383 000a 00BF     		.align	2
 1384              	.L118:
 1385 000c 00000000 		.word	htim4
 1386              		.cfi_endproc
 1387              	.LFE68:
 1389              		.section	.text.TIM4_IRQHandler,"ax",%progbits
 1390              		.align	1
 1391              		.weak	TIM4_IRQHandler
 1392              		.syntax unified
 1393              		.thumb
 1394              		.thumb_func
 1396              	TIM4_IRQHandler:
 1397              	.LFB111:
 110:startup_stm32f103xb.c **** __weak void I2C1_EV_IRQHandler(void)                   {Default_Handler();} 
ARM GAS  C:\Users\jisu8\AppData\Local\Temp\ccUMXDVa.s 			page 26


 1398              		.loc 1 110 56 is_stmt 1 view -0
 1399              		.cfi_startproc
 1400              		@ args = 0, pretend = 0, frame = 0
 1401              		@ frame_needed = 0, uses_anonymous_args = 0
 1402 0000 08B5     		push	{r3, lr}
 1403              	.LCFI53:
 1404              		.cfi_def_cfa_offset 8
 1405              		.cfi_offset 3, -8
 1406              		.cfi_offset 14, -4
 110:startup_stm32f103xb.c **** __weak void I2C1_EV_IRQHandler(void)                   {Default_Handler();} 
 1407              		.loc 1 110 57 view .LVU134
 1408 0002 FFF7FEFF 		bl	TIM4_Handler
 1409              	.LVL62:
 110:startup_stm32f103xb.c **** __weak void I2C1_EV_IRQHandler(void)                   {Default_Handler();} 
 1410              		.loc 1 110 72 is_stmt 0 view .LVU135
 1411 0006 08BD     		pop	{r3, pc}
 1412              		.cfi_endproc
 1413              	.LFE111:
 1415              		.section	.text.UART2_Handler,"ax",%progbits
 1416              		.align	1
 1417              		.global	UART2_Handler
 1418              		.syntax unified
 1419              		.thumb
 1420              		.thumb_func
 1422              	UART2_Handler:
 1423              	.LFB69:
  55:startup_stm32f103xb.c ****     HAL_UART_IRQHandler(&huart2);
 1424              		.loc 1 55 1 is_stmt 1 view -0
 1425              		.cfi_startproc
 1426              		@ args = 0, pretend = 0, frame = 0
 1427              		@ frame_needed = 0, uses_anonymous_args = 0
 1428 0000 08B5     		push	{r3, lr}
 1429              	.LCFI54:
 1430              		.cfi_def_cfa_offset 8
 1431              		.cfi_offset 3, -8
 1432              		.cfi_offset 14, -4
  56:startup_stm32f103xb.c **** }
 1433              		.loc 1 56 5 view .LVU137
 1434 0002 0248     		ldr	r0, .L124
 1435 0004 FFF7FEFF 		bl	HAL_UART_IRQHandler
 1436              	.LVL63:
  57:startup_stm32f103xb.c **** 
 1437              		.loc 1 57 1 is_stmt 0 view .LVU138
 1438 0008 08BD     		pop	{r3, pc}
 1439              	.L125:
 1440 000a 00BF     		.align	2
 1441              	.L124:
 1442 000c 00000000 		.word	huart2
 1443              		.cfi_endproc
 1444              	.LFE69:
 1446              		.section	.text.USART2_IRQHandler,"ax",%progbits
 1447              		.align	1
 1448              		.weak	USART2_IRQHandler
 1449              		.syntax unified
 1450              		.thumb
 1451              		.thumb_func
 1453              	USART2_IRQHandler:
ARM GAS  C:\Users\jisu8\AppData\Local\Temp\ccUMXDVa.s 			page 27


 1454              	.LFB119:
 118:startup_stm32f103xb.c **** __weak void USART3_IRQHandler(void)                    {Default_Handler();}              
 1455              		.loc 1 118 56 is_stmt 1 view -0
 1456              		.cfi_startproc
 1457              		@ args = 0, pretend = 0, frame = 0
 1458              		@ frame_needed = 0, uses_anonymous_args = 0
 1459 0000 08B5     		push	{r3, lr}
 1460              	.LCFI55:
 1461              		.cfi_def_cfa_offset 8
 1462              		.cfi_offset 3, -8
 1463              		.cfi_offset 14, -4
 118:startup_stm32f103xb.c **** __weak void USART3_IRQHandler(void)                    {Default_Handler();}              
 1464              		.loc 1 118 57 view .LVU140
 1465 0002 FFF7FEFF 		bl	UART2_Handler
 1466              	.LVL64:
 118:startup_stm32f103xb.c **** __weak void USART3_IRQHandler(void)                    {Default_Handler();}              
 1467              		.loc 1 118 73 is_stmt 0 view .LVU141
 1468 0006 08BD     		pop	{r3, pc}
 1469              		.cfi_endproc
 1470              	.LFE119:
 1472              		.section	.text.SystemTick_Handler,"ax",%progbits
 1473              		.align	1
 1474              		.global	SystemTick_Handler
 1475              		.syntax unified
 1476              		.thumb
 1477              		.thumb_func
 1479              	SystemTick_Handler:
 1480              	.LFB70:
  60:startup_stm32f103xb.c ****     /* USER CODE BEGIN SysTick_IRQn 0 */
 1481              		.loc 1 60 1 is_stmt 1 view -0
 1482              		.cfi_startproc
 1483              		@ args = 0, pretend = 0, frame = 0
 1484              		@ frame_needed = 0, uses_anonymous_args = 0
 1485 0000 08B5     		push	{r3, lr}
 1486              	.LCFI56:
 1487              		.cfi_def_cfa_offset 8
 1488              		.cfi_offset 3, -8
 1489              		.cfi_offset 14, -4
  64:startup_stm32f103xb.c ****     /* USER CODE BEGIN SysTick_IRQn 1 */
 1490              		.loc 1 64 5 view .LVU143
 1491 0002 FFF7FEFF 		bl	HAL_IncTick
 1492              	.LVL65:
  66:startup_stm32f103xb.c ****     /* USER CODE END SysTick_IRQn 1 */
 1493              		.loc 1 66 5 view .LVU144
 1494 0006 FFF7FEFF 		bl	Os_Handler_1ms
 1495              	.LVL66:
  68:startup_stm32f103xb.c **** 
 1496              		.loc 1 68 1 is_stmt 0 view .LVU145
 1497 000a 08BD     		pop	{r3, pc}
 1498              		.cfi_endproc
 1499              	.LFE70:
 1501              		.section	.text.SysTick_Handler,"ax",%progbits
 1502              		.align	1
 1503              		.weak	SysTick_Handler
 1504              		.syntax unified
 1505              		.thumb
 1506              		.thumb_func
ARM GAS  C:\Users\jisu8\AppData\Local\Temp\ccUMXDVa.s 			page 28


 1508              	SysTick_Handler:
 1509              	.LFB79:
  78:startup_stm32f103xb.c **** __weak void WWDG_IRQHandler(void)                      {Default_Handler();}  
 1510              		.loc 1 78 56 is_stmt 1 view -0
 1511              		.cfi_startproc
 1512              		@ args = 0, pretend = 0, frame = 0
 1513              		@ frame_needed = 0, uses_anonymous_args = 0
 1514 0000 08B5     		push	{r3, lr}
 1515              	.LCFI57:
 1516              		.cfi_def_cfa_offset 8
 1517              		.cfi_offset 3, -8
 1518              		.cfi_offset 14, -4
  78:startup_stm32f103xb.c **** __weak void WWDG_IRQHandler(void)                      {Default_Handler();}  
 1519              		.loc 1 78 57 view .LVU147
 1520 0002 FFF7FEFF 		bl	SystemTick_Handler
 1521              	.LVL67:
  78:startup_stm32f103xb.c **** __weak void WWDG_IRQHandler(void)                      {Default_Handler();}  
 1522              		.loc 1 78 78 is_stmt 0 view .LVU148
 1523 0006 08BD     		pop	{r3, pc}
 1524              		.cfi_endproc
 1525              	.LFE79:
 1527              		.section	.text.TIM1_BRK_UP_TRG_COM_IRQHandler,"ax",%progbits
 1528              		.align	1
 1529              		.weak	TIM1_BRK_UP_TRG_COM_IRQHandler
 1530              		.syntax unified
 1531              		.thumb
 1532              		.thumb_func
 1534              	TIM1_BRK_UP_TRG_COM_IRQHandler:
 1535              	.LFB107:
 106:startup_stm32f103xb.c **** __weak void TIM1_CC_IRQHandler(void)                   {Default_Handler();}               
 1536              		.loc 1 106 56 is_stmt 1 view -0
 1537              		.cfi_startproc
 1538              		@ args = 0, pretend = 0, frame = 0
 1539              		@ frame_needed = 0, uses_anonymous_args = 0
 1540 0000 08B5     		push	{r3, lr}
 1541              	.LCFI58:
 1542              		.cfi_def_cfa_offset 8
 1543              		.cfi_offset 3, -8
 1544              		.cfi_offset 14, -4
 106:startup_stm32f103xb.c **** __weak void TIM1_CC_IRQHandler(void)                   {Default_Handler();}               
 1545              		.loc 1 106 57 view .LVU150
 1546 0002 FFF7FEFF 		bl	Default_Handler
 1547              	.LVL68:
 1548              		.cfi_endproc
 1549              	.LFE107:
 1551              		.global	VectorTable
 1552              		.section	.isr_vector,"aw"
 1553              		.align	2
 1556              	VectorTable:
 1557 0000 00000000 		.word	_estack
 1558 0004 00000000 		.word	Reset_Handler
 1559 0008 00000000 		.word	NMI_Handler
 1560 000c 00000000 		.word	HardFault_Handler
 1561 0010 00000000 		.word	MemManage_Handler
 1562 0014 00000000 		.word	BusFault_Handler
 1563 0018 00000000 		.word	UsageFault_Handler
 1564 001c 00000000 		.word	0
ARM GAS  C:\Users\jisu8\AppData\Local\Temp\ccUMXDVa.s 			page 29


 1565 0020 00000000 		.word	0
 1566 0024 00000000 		.word	0
 1567 0028 00000000 		.word	0
 1568 002c 00000000 		.word	SVC_Handler
 1569 0030 00000000 		.word	DebugMon_Handler
 1570 0034 00000000 		.word	0
 1571 0038 00000000 		.word	PendSV_Handler
 1572 003c 00000000 		.word	SysTick_Handler
 1573 0040 00000000 		.word	WWDG_IRQHandler
 1574 0044 00000000 		.word	PVD_IRQHandler
 1575 0048 00000000 		.word	TAMPER_IRQHandler
 1576 004c 00000000 		.word	RTC_IRQHandler
 1577 0050 00000000 		.word	FLASH_IRQHandler
 1578 0054 00000000 		.word	RCC_IRQHandler
 1579 0058 00000000 		.word	EXTI0_IRQHandler
 1580 005c 00000000 		.word	EXTI1_IRQHandler
 1581 0060 00000000 		.word	EXTI2_IRQHandler
 1582 0064 00000000 		.word	EXTI3_IRQHandler
 1583 0068 00000000 		.word	EXTI4_IRQHandler
 1584 006c 00000000 		.word	DMA1_Channel1_IRQHandler
 1585 0070 00000000 		.word	DMA1_Channel2_IRQHandler
 1586 0074 00000000 		.word	DMA1_Channel3_IRQHandler
 1587 0078 00000000 		.word	DMA1_Channel4_IRQHandler
 1588 007c 00000000 		.word	DMA1_Channel5_IRQHandler
 1589 0080 00000000 		.word	DMA1_Channel6_IRQHandler
 1590 0084 00000000 		.word	DMA1_Channel7_IRQHandler
 1591 0088 00000000 		.word	ADC1_2_IRQHandler
 1592 008c 00000000 		.word	USB_HP_CAN1_TX_IRQHandler
 1593 0090 00000000 		.word	USB_LP_CAN1_RX0_IRQHandler
 1594 0094 00000000 		.word	CAN1_RX1_IRQHandler
 1595 0098 00000000 		.word	CAN1_SCE_IRQHandler
 1596 009c 00000000 		.word	EXTI9_5_IRQHandler
 1597 00a0 00000000 		.word	TIM1_BRK_IRQHandler
 1598 00a4 00000000 		.word	TIM1_UP_IRQHandler
 1599 00a8 00000000 		.word	TIM1_TRG_COM_IRQHandler
 1600 00ac 00000000 		.word	TIM1_CC_IRQHandler
 1601 00b0 00000000 		.word	TIM2_IRQHandler
 1602 00b4 00000000 		.word	TIM3_IRQHandler
 1603 00b8 00000000 		.word	TIM4_IRQHandler
 1604 00bc 00000000 		.word	I2C1_EV_IRQHandler
 1605 00c0 00000000 		.word	I2C1_ER_IRQHandler
 1606 00c4 00000000 		.word	I2C2_EV_IRQHandler
 1607 00c8 00000000 		.word	I2C2_ER_IRQHandler
 1608 00cc 00000000 		.word	SPI1_IRQHandler
 1609 00d0 00000000 		.word	SPI2_IRQHandler
 1610 00d4 00000000 		.word	USART1_IRQHandler
 1611 00d8 00000000 		.word	USART2_IRQHandler
 1612 00dc 00000000 		.word	USART3_IRQHandler
 1613 00e0 00000000 		.word	EXTI15_10_IRQHandler
 1614 00e4 00000000 		.word	RTC_Alarm_IRQHandler
 1615 00e8 00000000 		.word	USBWakeUp_IRQHandler
 1616 00ec 00000000 		.word	0
 1617 00f0 00000000 		.word	0
 1618 00f4 00000000 		.word	0
 1619 00f8 00000000 		.word	0
 1620 00fc 00000000 		.word	0
 1621 0100 00000000 		.word	0
ARM GAS  C:\Users\jisu8\AppData\Local\Temp\ccUMXDVa.s 			page 30


 1622 0104 00000000 		.word	0
 1623 0108 00000000 		.word	BootRAM
 1624              		.text
 1625              	.Letext0:
 1626              		.file 2 "d:\\3.tools\\arm_gcc_toolchain\\arm-none-eabi\\include\\machine\\_default_types.h"
 1627              		.file 3 "d:\\3.tools\\arm_gcc_toolchain\\arm-none-eabi\\include\\sys\\_stdint.h"
 1628              		.file 4 "Drivers/CMSIS/Device/ST/STM32F1xx/Include/stm32f103xb.h"
 1629              		.file 5 "Drivers/STM32F1xx_HAL_Driver/Inc/stm32f1xx_hal_def.h"
 1630              		.file 6 "Drivers/STM32F1xx_HAL_Driver/Inc/stm32f1xx_hal_dma.h"
 1631              		.file 7 "Drivers/STM32F1xx_HAL_Driver/Inc/stm32f1xx_hal_tim.h"
 1632              		.file 8 "Drivers/STM32F1xx_HAL_Driver/Inc/stm32f1xx_hal_uart.h"
 1633              		.file 9 "Core/Inc/main.h"
 1634              		.file 10 "Drivers/STM32F1xx_HAL_Driver/Inc/stm32f1xx_hal.h"
 1635              		.file 11 "Core/Inc/os.h"
 1636              		.file 12 "Drivers/CMSIS/Device/ST/STM32F1xx/Include/system_stm32f1xx.h"
ARM GAS  C:\Users\jisu8\AppData\Local\Temp\ccUMXDVa.s 			page 31


DEFINED SYMBOLS
                            *ABS*:00000000 startup_stm32f103xb.c
C:\Users\jisu8\AppData\Local\Temp\ccUMXDVa.s:18     .text.Reset_Handler:00000000 $t
C:\Users\jisu8\AppData\Local\Temp\ccUMXDVa.s:24     .text.Reset_Handler:00000000 Reset_Handler
C:\Users\jisu8\AppData\Local\Temp\ccUMXDVa.s:94     .text.Reset_Handler:00000034 $d
C:\Users\jisu8\AppData\Local\Temp\ccUMXDVa.s:103    .text.Default_Handler:00000000 $t
C:\Users\jisu8\AppData\Local\Temp\ccUMXDVa.s:109    .text.Default_Handler:00000000 Default_Handler
C:\Users\jisu8\AppData\Local\Temp\ccUMXDVa.s:126    .text.NMI_Handler:00000000 $t
C:\Users\jisu8\AppData\Local\Temp\ccUMXDVa.s:132    .text.NMI_Handler:00000000 NMI_Handler
C:\Users\jisu8\AppData\Local\Temp\ccUMXDVa.s:150    .text.HardFault_Handler:00000000 $t
C:\Users\jisu8\AppData\Local\Temp\ccUMXDVa.s:156    .text.HardFault_Handler:00000000 HardFault_Handler
C:\Users\jisu8\AppData\Local\Temp\ccUMXDVa.s:174    .text.MemManage_Handler:00000000 $t
C:\Users\jisu8\AppData\Local\Temp\ccUMXDVa.s:180    .text.MemManage_Handler:00000000 MemManage_Handler
C:\Users\jisu8\AppData\Local\Temp\ccUMXDVa.s:198    .text.BusFault_Handler:00000000 $t
C:\Users\jisu8\AppData\Local\Temp\ccUMXDVa.s:204    .text.BusFault_Handler:00000000 BusFault_Handler
C:\Users\jisu8\AppData\Local\Temp\ccUMXDVa.s:222    .text.UsageFault_Handler:00000000 $t
C:\Users\jisu8\AppData\Local\Temp\ccUMXDVa.s:228    .text.UsageFault_Handler:00000000 UsageFault_Handler
C:\Users\jisu8\AppData\Local\Temp\ccUMXDVa.s:246    .text.SVC_Handler:00000000 $t
C:\Users\jisu8\AppData\Local\Temp\ccUMXDVa.s:252    .text.SVC_Handler:00000000 SVC_Handler
C:\Users\jisu8\AppData\Local\Temp\ccUMXDVa.s:270    .text.DebugMon_Handler:00000000 $t
C:\Users\jisu8\AppData\Local\Temp\ccUMXDVa.s:276    .text.DebugMon_Handler:00000000 DebugMon_Handler
C:\Users\jisu8\AppData\Local\Temp\ccUMXDVa.s:294    .text.PendSV_Handler:00000000 $t
C:\Users\jisu8\AppData\Local\Temp\ccUMXDVa.s:300    .text.PendSV_Handler:00000000 PendSV_Handler
C:\Users\jisu8\AppData\Local\Temp\ccUMXDVa.s:318    .text.WWDG_IRQHandler:00000000 $t
C:\Users\jisu8\AppData\Local\Temp\ccUMXDVa.s:324    .text.WWDG_IRQHandler:00000000 WWDG_IRQHandler
C:\Users\jisu8\AppData\Local\Temp\ccUMXDVa.s:342    .text.PVD_IRQHandler:00000000 $t
C:\Users\jisu8\AppData\Local\Temp\ccUMXDVa.s:348    .text.PVD_IRQHandler:00000000 PVD_IRQHandler
C:\Users\jisu8\AppData\Local\Temp\ccUMXDVa.s:366    .text.TAMPER_IRQHandler:00000000 $t
C:\Users\jisu8\AppData\Local\Temp\ccUMXDVa.s:372    .text.TAMPER_IRQHandler:00000000 TAMPER_IRQHandler
C:\Users\jisu8\AppData\Local\Temp\ccUMXDVa.s:390    .text.RTC_IRQHandler:00000000 $t
C:\Users\jisu8\AppData\Local\Temp\ccUMXDVa.s:396    .text.RTC_IRQHandler:00000000 RTC_IRQHandler
C:\Users\jisu8\AppData\Local\Temp\ccUMXDVa.s:414    .text.FLASH_IRQHandler:00000000 $t
C:\Users\jisu8\AppData\Local\Temp\ccUMXDVa.s:420    .text.FLASH_IRQHandler:00000000 FLASH_IRQHandler
C:\Users\jisu8\AppData\Local\Temp\ccUMXDVa.s:438    .text.RCC_IRQHandler:00000000 $t
C:\Users\jisu8\AppData\Local\Temp\ccUMXDVa.s:444    .text.RCC_IRQHandler:00000000 RCC_IRQHandler
C:\Users\jisu8\AppData\Local\Temp\ccUMXDVa.s:462    .text.EXTI0_IRQHandler:00000000 $t
C:\Users\jisu8\AppData\Local\Temp\ccUMXDVa.s:468    .text.EXTI0_IRQHandler:00000000 EXTI0_IRQHandler
C:\Users\jisu8\AppData\Local\Temp\ccUMXDVa.s:486    .text.EXTI1_IRQHandler:00000000 $t
C:\Users\jisu8\AppData\Local\Temp\ccUMXDVa.s:492    .text.EXTI1_IRQHandler:00000000 EXTI1_IRQHandler
C:\Users\jisu8\AppData\Local\Temp\ccUMXDVa.s:510    .text.EXTI2_IRQHandler:00000000 $t
C:\Users\jisu8\AppData\Local\Temp\ccUMXDVa.s:516    .text.EXTI2_IRQHandler:00000000 EXTI2_IRQHandler
C:\Users\jisu8\AppData\Local\Temp\ccUMXDVa.s:534    .text.EXTI3_IRQHandler:00000000 $t
C:\Users\jisu8\AppData\Local\Temp\ccUMXDVa.s:540    .text.EXTI3_IRQHandler:00000000 EXTI3_IRQHandler
C:\Users\jisu8\AppData\Local\Temp\ccUMXDVa.s:558    .text.EXTI4_IRQHandler:00000000 $t
C:\Users\jisu8\AppData\Local\Temp\ccUMXDVa.s:564    .text.EXTI4_IRQHandler:00000000 EXTI4_IRQHandler
C:\Users\jisu8\AppData\Local\Temp\ccUMXDVa.s:582    .text.DMA1_Channel1_IRQHandler:00000000 $t
C:\Users\jisu8\AppData\Local\Temp\ccUMXDVa.s:588    .text.DMA1_Channel1_IRQHandler:00000000 DMA1_Channel1_IRQHandler
C:\Users\jisu8\AppData\Local\Temp\ccUMXDVa.s:606    .text.DMA1_Channel2_IRQHandler:00000000 $t
C:\Users\jisu8\AppData\Local\Temp\ccUMXDVa.s:612    .text.DMA1_Channel2_IRQHandler:00000000 DMA1_Channel2_IRQHandler
C:\Users\jisu8\AppData\Local\Temp\ccUMXDVa.s:630    .text.DMA1_Channel3_IRQHandler:00000000 $t
C:\Users\jisu8\AppData\Local\Temp\ccUMXDVa.s:636    .text.DMA1_Channel3_IRQHandler:00000000 DMA1_Channel3_IRQHandler
C:\Users\jisu8\AppData\Local\Temp\ccUMXDVa.s:654    .text.DMA1_Channel4_IRQHandler:00000000 $t
C:\Users\jisu8\AppData\Local\Temp\ccUMXDVa.s:660    .text.DMA1_Channel4_IRQHandler:00000000 DMA1_Channel4_IRQHandler
C:\Users\jisu8\AppData\Local\Temp\ccUMXDVa.s:678    .text.DMA1_Channel5_IRQHandler:00000000 $t
C:\Users\jisu8\AppData\Local\Temp\ccUMXDVa.s:684    .text.DMA1_Channel5_IRQHandler:00000000 DMA1_Channel5_IRQHandler
C:\Users\jisu8\AppData\Local\Temp\ccUMXDVa.s:702    .text.DMA1_Channel6_IRQHandler:00000000 $t
C:\Users\jisu8\AppData\Local\Temp\ccUMXDVa.s:708    .text.DMA1_Channel6_IRQHandler:00000000 DMA1_Channel6_IRQHandler
ARM GAS  C:\Users\jisu8\AppData\Local\Temp\ccUMXDVa.s 			page 32


C:\Users\jisu8\AppData\Local\Temp\ccUMXDVa.s:726    .text.DMA1_Channel7_IRQHandler:00000000 $t
C:\Users\jisu8\AppData\Local\Temp\ccUMXDVa.s:732    .text.DMA1_Channel7_IRQHandler:00000000 DMA1_Channel7_IRQHandler
C:\Users\jisu8\AppData\Local\Temp\ccUMXDVa.s:750    .text.ADC1_2_IRQHandler:00000000 $t
C:\Users\jisu8\AppData\Local\Temp\ccUMXDVa.s:756    .text.ADC1_2_IRQHandler:00000000 ADC1_2_IRQHandler
C:\Users\jisu8\AppData\Local\Temp\ccUMXDVa.s:774    .text.USB_HP_CAN1_TX_IRQHandler:00000000 $t
C:\Users\jisu8\AppData\Local\Temp\ccUMXDVa.s:780    .text.USB_HP_CAN1_TX_IRQHandler:00000000 USB_HP_CAN1_TX_IRQHandler
C:\Users\jisu8\AppData\Local\Temp\ccUMXDVa.s:798    .text.USB_LP_CAN1_RX0_IRQHandler:00000000 $t
C:\Users\jisu8\AppData\Local\Temp\ccUMXDVa.s:804    .text.USB_LP_CAN1_RX0_IRQHandler:00000000 USB_LP_CAN1_RX0_IRQHandler
C:\Users\jisu8\AppData\Local\Temp\ccUMXDVa.s:822    .text.CAN1_RX1_IRQHandler:00000000 $t
C:\Users\jisu8\AppData\Local\Temp\ccUMXDVa.s:828    .text.CAN1_RX1_IRQHandler:00000000 CAN1_RX1_IRQHandler
C:\Users\jisu8\AppData\Local\Temp\ccUMXDVa.s:846    .text.CAN1_SCE_IRQHandler:00000000 $t
C:\Users\jisu8\AppData\Local\Temp\ccUMXDVa.s:852    .text.CAN1_SCE_IRQHandler:00000000 CAN1_SCE_IRQHandler
C:\Users\jisu8\AppData\Local\Temp\ccUMXDVa.s:870    .text.EXTI9_5_IRQHandler:00000000 $t
C:\Users\jisu8\AppData\Local\Temp\ccUMXDVa.s:876    .text.EXTI9_5_IRQHandler:00000000 EXTI9_5_IRQHandler
C:\Users\jisu8\AppData\Local\Temp\ccUMXDVa.s:894    .text.TIM1_BRK_IRQHandler:00000000 $t
C:\Users\jisu8\AppData\Local\Temp\ccUMXDVa.s:900    .text.TIM1_BRK_IRQHandler:00000000 TIM1_BRK_IRQHandler
C:\Users\jisu8\AppData\Local\Temp\ccUMXDVa.s:918    .text.TIM1_UP_IRQHandler:00000000 $t
C:\Users\jisu8\AppData\Local\Temp\ccUMXDVa.s:924    .text.TIM1_UP_IRQHandler:00000000 TIM1_UP_IRQHandler
C:\Users\jisu8\AppData\Local\Temp\ccUMXDVa.s:942    .text.TIM1_TRG_COM_IRQHandler:00000000 $t
C:\Users\jisu8\AppData\Local\Temp\ccUMXDVa.s:948    .text.TIM1_TRG_COM_IRQHandler:00000000 TIM1_TRG_COM_IRQHandler
C:\Users\jisu8\AppData\Local\Temp\ccUMXDVa.s:966    .text.TIM1_CC_IRQHandler:00000000 $t
C:\Users\jisu8\AppData\Local\Temp\ccUMXDVa.s:972    .text.TIM1_CC_IRQHandler:00000000 TIM1_CC_IRQHandler
C:\Users\jisu8\AppData\Local\Temp\ccUMXDVa.s:990    .text.TIM3_IRQHandler:00000000 $t
C:\Users\jisu8\AppData\Local\Temp\ccUMXDVa.s:996    .text.TIM3_IRQHandler:00000000 TIM3_IRQHandler
C:\Users\jisu8\AppData\Local\Temp\ccUMXDVa.s:1014   .text.I2C1_EV_IRQHandler:00000000 $t
C:\Users\jisu8\AppData\Local\Temp\ccUMXDVa.s:1020   .text.I2C1_EV_IRQHandler:00000000 I2C1_EV_IRQHandler
C:\Users\jisu8\AppData\Local\Temp\ccUMXDVa.s:1038   .text.I2C1_ER_IRQHandler:00000000 $t
C:\Users\jisu8\AppData\Local\Temp\ccUMXDVa.s:1044   .text.I2C1_ER_IRQHandler:00000000 I2C1_ER_IRQHandler
C:\Users\jisu8\AppData\Local\Temp\ccUMXDVa.s:1062   .text.I2C2_EV_IRQHandler:00000000 $t
C:\Users\jisu8\AppData\Local\Temp\ccUMXDVa.s:1068   .text.I2C2_EV_IRQHandler:00000000 I2C2_EV_IRQHandler
C:\Users\jisu8\AppData\Local\Temp\ccUMXDVa.s:1086   .text.I2C2_ER_IRQHandler:00000000 $t
C:\Users\jisu8\AppData\Local\Temp\ccUMXDVa.s:1092   .text.I2C2_ER_IRQHandler:00000000 I2C2_ER_IRQHandler
C:\Users\jisu8\AppData\Local\Temp\ccUMXDVa.s:1110   .text.SPI1_IRQHandler:00000000 $t
C:\Users\jisu8\AppData\Local\Temp\ccUMXDVa.s:1116   .text.SPI1_IRQHandler:00000000 SPI1_IRQHandler
C:\Users\jisu8\AppData\Local\Temp\ccUMXDVa.s:1134   .text.SPI2_IRQHandler:00000000 $t
C:\Users\jisu8\AppData\Local\Temp\ccUMXDVa.s:1140   .text.SPI2_IRQHandler:00000000 SPI2_IRQHandler
C:\Users\jisu8\AppData\Local\Temp\ccUMXDVa.s:1158   .text.USART1_IRQHandler:00000000 $t
C:\Users\jisu8\AppData\Local\Temp\ccUMXDVa.s:1164   .text.USART1_IRQHandler:00000000 USART1_IRQHandler
C:\Users\jisu8\AppData\Local\Temp\ccUMXDVa.s:1182   .text.USART3_IRQHandler:00000000 $t
C:\Users\jisu8\AppData\Local\Temp\ccUMXDVa.s:1188   .text.USART3_IRQHandler:00000000 USART3_IRQHandler
C:\Users\jisu8\AppData\Local\Temp\ccUMXDVa.s:1206   .text.EXTI15_10_IRQHandler:00000000 $t
C:\Users\jisu8\AppData\Local\Temp\ccUMXDVa.s:1212   .text.EXTI15_10_IRQHandler:00000000 EXTI15_10_IRQHandler
C:\Users\jisu8\AppData\Local\Temp\ccUMXDVa.s:1230   .text.RTC_Alarm_IRQHandler:00000000 $t
C:\Users\jisu8\AppData\Local\Temp\ccUMXDVa.s:1236   .text.RTC_Alarm_IRQHandler:00000000 RTC_Alarm_IRQHandler
C:\Users\jisu8\AppData\Local\Temp\ccUMXDVa.s:1254   .text.USBWakeUp_IRQHandler:00000000 $t
C:\Users\jisu8\AppData\Local\Temp\ccUMXDVa.s:1260   .text.USBWakeUp_IRQHandler:00000000 USBWakeUp_IRQHandler
C:\Users\jisu8\AppData\Local\Temp\ccUMXDVa.s:1278   .text.BootRAM:00000000 $t
C:\Users\jisu8\AppData\Local\Temp\ccUMXDVa.s:1284   .text.BootRAM:00000000 BootRAM
C:\Users\jisu8\AppData\Local\Temp\ccUMXDVa.s:1302   .text.TIM2_Handler:00000000 $t
C:\Users\jisu8\AppData\Local\Temp\ccUMXDVa.s:1308   .text.TIM2_Handler:00000000 TIM2_Handler
C:\Users\jisu8\AppData\Local\Temp\ccUMXDVa.s:1328   .text.TIM2_Handler:0000000c $d
C:\Users\jisu8\AppData\Local\Temp\ccUMXDVa.s:1333   .text.TIM2_IRQHandler:00000000 $t
C:\Users\jisu8\AppData\Local\Temp\ccUMXDVa.s:1339   .text.TIM2_IRQHandler:00000000 TIM2_IRQHandler
C:\Users\jisu8\AppData\Local\Temp\ccUMXDVa.s:1359   .text.TIM4_Handler:00000000 $t
C:\Users\jisu8\AppData\Local\Temp\ccUMXDVa.s:1365   .text.TIM4_Handler:00000000 TIM4_Handler
C:\Users\jisu8\AppData\Local\Temp\ccUMXDVa.s:1385   .text.TIM4_Handler:0000000c $d
C:\Users\jisu8\AppData\Local\Temp\ccUMXDVa.s:1390   .text.TIM4_IRQHandler:00000000 $t
ARM GAS  C:\Users\jisu8\AppData\Local\Temp\ccUMXDVa.s 			page 33


C:\Users\jisu8\AppData\Local\Temp\ccUMXDVa.s:1396   .text.TIM4_IRQHandler:00000000 TIM4_IRQHandler
C:\Users\jisu8\AppData\Local\Temp\ccUMXDVa.s:1416   .text.UART2_Handler:00000000 $t
C:\Users\jisu8\AppData\Local\Temp\ccUMXDVa.s:1422   .text.UART2_Handler:00000000 UART2_Handler
C:\Users\jisu8\AppData\Local\Temp\ccUMXDVa.s:1442   .text.UART2_Handler:0000000c $d
C:\Users\jisu8\AppData\Local\Temp\ccUMXDVa.s:1447   .text.USART2_IRQHandler:00000000 $t
C:\Users\jisu8\AppData\Local\Temp\ccUMXDVa.s:1453   .text.USART2_IRQHandler:00000000 USART2_IRQHandler
C:\Users\jisu8\AppData\Local\Temp\ccUMXDVa.s:1473   .text.SystemTick_Handler:00000000 $t
C:\Users\jisu8\AppData\Local\Temp\ccUMXDVa.s:1479   .text.SystemTick_Handler:00000000 SystemTick_Handler
C:\Users\jisu8\AppData\Local\Temp\ccUMXDVa.s:1502   .text.SysTick_Handler:00000000 $t
C:\Users\jisu8\AppData\Local\Temp\ccUMXDVa.s:1508   .text.SysTick_Handler:00000000 SysTick_Handler
C:\Users\jisu8\AppData\Local\Temp\ccUMXDVa.s:1528   .text.TIM1_BRK_UP_TRG_COM_IRQHandler:00000000 $t
C:\Users\jisu8\AppData\Local\Temp\ccUMXDVa.s:1534   .text.TIM1_BRK_UP_TRG_COM_IRQHandler:00000000 TIM1_BRK_UP_TRG_COM_IRQHandler
C:\Users\jisu8\AppData\Local\Temp\ccUMXDVa.s:1556   .isr_vector:00000000 VectorTable
C:\Users\jisu8\AppData\Local\Temp\ccUMXDVa.s:1553   .isr_vector:00000000 $d

UNDEFINED SYMBOLS
SystemInit
__libc_init_array
main
_sdata
_sidata
_edata
_sbss
_ebss
HAL_TIM_IRQHandler
htim2
htim4
HAL_UART_IRQHandler
huart2
HAL_IncTick
Os_Handler_1ms
_estack
