ARM GAS  C:\Users\jisu8\AppData\Local\Temp\ccM0cXAp.s 			page 1


   1              		.cpu cortex-m3
   2              		.arch armv7-m
   3              		.fpu softvfp
   4              		.eabi_attribute 20, 1
   5              		.eabi_attribute 21, 1
   6              		.eabi_attribute 23, 3
   7              		.eabi_attribute 24, 1
   8              		.eabi_attribute 25, 1
   9              		.eabi_attribute 26, 1
  10              		.eabi_attribute 30, 1
  11              		.eabi_attribute 34, 1
  12              		.eabi_attribute 18, 4
  13              		.file	"temp.c"
  14              		.text
  15              	.Ltext0:
  16              		.cfi_sections	.debug_frame
  17              		.section	.text.Temperature_Compensation,"ax",%progbits
  18              		.align	1
  19              		.syntax unified
  20              		.thumb
  21              		.thumb_func
  23              	Temperature_Compensation:
  24              	.LVL0:
  25              	.LFB66:
  26              		.file 1 "Core/Src/temp.c"
   1:Core/Src/temp.c **** #include "temp.h"
   2:Core/Src/temp.c **** 
   3:Core/Src/temp.c **** uint16 Temp_Adc_TP_Raw;
   4:Core/Src/temp.c **** uint16 Temp_Adc_CPU_Raw;
   5:Core/Src/temp.c **** uint8 Temp_Adc_TP_Status;
   6:Core/Src/temp.c **** uint8 Temp_Adc_CPU_Status;
   7:Core/Src/temp.c **** 
   8:Core/Src/temp.c **** uint8 Temp_Avg_TP_Count = 10;
   9:Core/Src/temp.c **** uint8 Temp_Avg_CPU_Count = 10;
  10:Core/Src/temp.c **** 
  11:Core/Src/temp.c **** uint32 Temp_Adc_TP_Sum;
  12:Core/Src/temp.c **** uint32 Temp_Adc_CPU_Sum;
  13:Core/Src/temp.c **** 
  14:Core/Src/temp.c **** uint16 Temp_Adc_TP_Volt;
  15:Core/Src/temp.c **** uint16 Temp_Adc_CPU_Volt;
  16:Core/Src/temp.c **** 
  17:Core/Src/temp.c **** sint16 Temp_Adc_TP;
  18:Core/Src/temp.c **** sint16 Temp_Adc_CPU;
  19:Core/Src/temp.c **** 
  20:Core/Src/temp.c **** static void Temperature_Compensation(uint16 temp_volt);
  21:Core/Src/temp.c **** 
  22:Core/Src/temp.c **** void Temp_Read(void)
  23:Core/Src/temp.c **** {
  24:Core/Src/temp.c ****     HAL_ADC_Start(&TEMP_MODULE);
  25:Core/Src/temp.c ****     if(HAL_OK == HAL_ADC_PollForConversion(&TEMP_MODULE,10))
  26:Core/Src/temp.c ****     {
  27:Core/Src/temp.c ****         Temp_Adc_TP_Raw = HAL_ADC_GetValue(&TEMP_MODULE);
  28:Core/Src/temp.c ****         Temp_Adc_TP_Status = 1;
  29:Core/Src/temp.c ****     }
  30:Core/Src/temp.c ****     else
  31:Core/Src/temp.c ****     {
  32:Core/Src/temp.c ****         Temp_Adc_TP_Status = 0;
ARM GAS  C:\Users\jisu8\AppData\Local\Temp\ccM0cXAp.s 			page 2


  33:Core/Src/temp.c ****     }
  34:Core/Src/temp.c **** 
  35:Core/Src/temp.c ****     HAL_ADC_Start(&TEMP_MODULE);
  36:Core/Src/temp.c ****     if(HAL_OK == HAL_ADC_PollForConversion(&TEMP_MODULE,10))
  37:Core/Src/temp.c ****     {
  38:Core/Src/temp.c ****         Temp_Adc_CPU_Raw = HAL_ADC_GetValue(&TEMP_MODULE);
  39:Core/Src/temp.c ****         Temp_Adc_CPU_Status = 1;
  40:Core/Src/temp.c ****     }
  41:Core/Src/temp.c ****     else
  42:Core/Src/temp.c ****     {
  43:Core/Src/temp.c ****         Temp_Adc_CPU_Status = 0;
  44:Core/Src/temp.c ****     }
  45:Core/Src/temp.c **** 
  46:Core/Src/temp.c **** 
  47:Core/Src/temp.c ****     if(1 == Temp_Adc_TP_Status)
  48:Core/Src/temp.c ****     {
  49:Core/Src/temp.c ****         Temp_Avg_TP_Count++;
  50:Core/Src/temp.c ****         Temp_Adc_TP_Sum += Temp_Adc_TP_Raw;
  51:Core/Src/temp.c ****         if(Temp_Avg_TP_Count>=10)
  52:Core/Src/temp.c ****         {
  53:Core/Src/temp.c ****             Temp_Adc_TP_Volt = (uint16)((float)(Temp_Adc_TP_Sum / Temp_Avg_TP_Count)*5000.0f/4095.0
  54:Core/Src/temp.c ****             Temperature_Compensation(Temp_Adc_TP_Volt);
  55:Core/Src/temp.c ****             Temp_Avg_TP_Count = 0;
  56:Core/Src/temp.c ****             Temp_Adc_TP_Sum = 0;
  57:Core/Src/temp.c ****         }
  58:Core/Src/temp.c ****     }
  59:Core/Src/temp.c ****     
  60:Core/Src/temp.c ****     if(1 == Temp_Adc_CPU_Status)
  61:Core/Src/temp.c ****     {
  62:Core/Src/temp.c ****         Temp_Avg_CPU_Count++;
  63:Core/Src/temp.c ****         Temp_Adc_CPU_Sum += Temp_Adc_CPU_Raw;
  64:Core/Src/temp.c ****         if(Temp_Avg_CPU_Count>=10)
  65:Core/Src/temp.c ****         {
  66:Core/Src/temp.c ****             Temp_Adc_CPU_Volt = (uint16)((float)(Temp_Adc_CPU_Sum / Temp_Avg_CPU_Count)*3300.0f/409
  67:Core/Src/temp.c ****             Temp_Adc_CPU = (sint16)(((float)Temp_Adc_CPU_Volt - 760.0f) / 2.5f + 25.0f);
  68:Core/Src/temp.c ****             Temp_Avg_CPU_Count = 0;
  69:Core/Src/temp.c ****             Temp_Adc_CPU_Sum = 0;
  70:Core/Src/temp.c ****         }
  71:Core/Src/temp.c ****     }
  72:Core/Src/temp.c **** 
  73:Core/Src/temp.c ****     return;
  74:Core/Src/temp.c **** }
  75:Core/Src/temp.c **** 
  76:Core/Src/temp.c **** static void Temperature_Compensation(uint16 temp_volt)
  77:Core/Src/temp.c **** {
  27              		.loc 1 77 1 view -0
  28              		.cfi_startproc
  29              		@ args = 0, pretend = 0, frame = 0
  30              		@ frame_needed = 0, uses_anonymous_args = 0
  31              		@ link register save eliminated.
  78:Core/Src/temp.c ****     sint16 Compensation_val = 0;
  32              		.loc 1 78 5 view .LVU1
  79:Core/Src/temp.c ****     if(temp_volt>TEMP_ZONE1_THRESHOLD)
  33              		.loc 1 79 5 view .LVU2
  34              		.loc 1 79 7 is_stmt 0 view .LVU3
  35 0000 40F22A73 		movw	r3, #1834
  36 0004 9842     		cmp	r0, r3
ARM GAS  C:\Users\jisu8\AppData\Local\Temp\ccM0cXAp.s 			page 3


  37 0006 00F23982 		bhi	.L3
  80:Core/Src/temp.c ****     {
  81:Core/Src/temp.c ****         Compensation_val = -11;
  82:Core/Src/temp.c ****     }
  83:Core/Src/temp.c ****     else if(temp_volt>TEMP_ZONE2_THRESHOLD)
  38              		.loc 1 83 10 is_stmt 1 view .LVU4
  39              		.loc 1 83 12 is_stmt 0 view .LVU5
  40 000a 40F22673 		movw	r3, #1830
  41 000e 9842     		cmp	r0, r3
  42 0010 00F23982 		bhi	.L4
  84:Core/Src/temp.c ****     {
  85:Core/Src/temp.c ****         Compensation_val = -10;       
  86:Core/Src/temp.c ****     }
  87:Core/Src/temp.c ****     else if(temp_volt>TEMP_ZONE3_THRESHOLD)
  43              		.loc 1 87 10 is_stmt 1 view .LVU6
  44              		.loc 1 87 12 is_stmt 0 view .LVU7
  45 0014 40F22273 		movw	r3, #1826
  46 0018 9842     		cmp	r0, r3
  47 001a 00F23782 		bhi	.L5
  88:Core/Src/temp.c ****     {
  89:Core/Src/temp.c ****         Compensation_val = -9;       
  90:Core/Src/temp.c ****     }    
  91:Core/Src/temp.c ****     else if(temp_volt>TEMP_ZONE4_THRESHOLD)
  48              		.loc 1 91 10 is_stmt 1 view .LVU8
  49              		.loc 1 91 12 is_stmt 0 view .LVU9
  50 001e 40F21E73 		movw	r3, #1822
  51 0022 9842     		cmp	r0, r3
  52 0024 00F23582 		bhi	.L6
  92:Core/Src/temp.c ****     {
  93:Core/Src/temp.c ****         Compensation_val = -8;       
  94:Core/Src/temp.c ****     }    
  95:Core/Src/temp.c ****     else if(temp_volt>TEMP_ZONE5_THRESHOLD)
  53              		.loc 1 95 10 is_stmt 1 view .LVU10
  54              		.loc 1 95 12 is_stmt 0 view .LVU11
  55 0028 40F21A73 		movw	r3, #1818
  56 002c 9842     		cmp	r0, r3
  57 002e 00F23382 		bhi	.L7
  96:Core/Src/temp.c ****     {
  97:Core/Src/temp.c ****         Compensation_val = -7;       
  98:Core/Src/temp.c ****     }    
  99:Core/Src/temp.c ****     else if(temp_volt>TEMP_ZONE6_THRESHOLD)
  58              		.loc 1 99 10 is_stmt 1 view .LVU12
  59              		.loc 1 99 12 is_stmt 0 view .LVU13
  60 0032 40F21673 		movw	r3, #1814
  61 0036 9842     		cmp	r0, r3
  62 0038 00F23182 		bhi	.L8
 100:Core/Src/temp.c ****     {
 101:Core/Src/temp.c ****         Compensation_val = -6;       
 102:Core/Src/temp.c ****     }    
 103:Core/Src/temp.c ****     else if(temp_volt>TEMP_ZONE7_THRESHOLD)
  63              		.loc 1 103 10 is_stmt 1 view .LVU14
  64              		.loc 1 103 12 is_stmt 0 view .LVU15
  65 003c 40F21273 		movw	r3, #1810
  66 0040 9842     		cmp	r0, r3
  67 0042 00F22F82 		bhi	.L9
 104:Core/Src/temp.c ****     {
 105:Core/Src/temp.c ****         Compensation_val = -5;       
ARM GAS  C:\Users\jisu8\AppData\Local\Temp\ccM0cXAp.s 			page 4


 106:Core/Src/temp.c ****     }    
 107:Core/Src/temp.c ****     else if(temp_volt>TEMP_ZONE8_THRESHOLD)
  68              		.loc 1 107 10 is_stmt 1 view .LVU16
  69              		.loc 1 107 12 is_stmt 0 view .LVU17
  70 0046 40F20E73 		movw	r3, #1806
  71 004a 9842     		cmp	r0, r3
  72 004c 00F22D82 		bhi	.L10
 108:Core/Src/temp.c ****     {
 109:Core/Src/temp.c ****         Compensation_val = -4;       
 110:Core/Src/temp.c ****     }    
 111:Core/Src/temp.c ****     else if(temp_volt>TEMP_ZONE9_THRESHOLD)
  73              		.loc 1 111 10 is_stmt 1 view .LVU18
  74              		.loc 1 111 12 is_stmt 0 view .LVU19
  75 0050 40F20A73 		movw	r3, #1802
  76 0054 9842     		cmp	r0, r3
  77 0056 00F22B82 		bhi	.L11
 112:Core/Src/temp.c ****     {
 113:Core/Src/temp.c ****         Compensation_val = -3;       
 114:Core/Src/temp.c ****     }    
 115:Core/Src/temp.c ****     else if(temp_volt>TEMP_ZONE10_THRESHOLD)
  78              		.loc 1 115 10 is_stmt 1 view .LVU20
  79              		.loc 1 115 12 is_stmt 0 view .LVU21
  80 005a 40F20673 		movw	r3, #1798
  81 005e 9842     		cmp	r0, r3
  82 0060 00F22982 		bhi	.L12
 116:Core/Src/temp.c ****     {
 117:Core/Src/temp.c ****         Compensation_val = -2;       
 118:Core/Src/temp.c ****     }    
 119:Core/Src/temp.c ****     else if(temp_volt>TEMP_ZONE11_THRESHOLD)
  83              		.loc 1 119 10 is_stmt 1 view .LVU22
  84              		.loc 1 119 12 is_stmt 0 view .LVU23
  85 0064 40F20273 		movw	r3, #1794
  86 0068 9842     		cmp	r0, r3
  87 006a 00F22782 		bhi	.L13
 120:Core/Src/temp.c ****     {
 121:Core/Src/temp.c ****         Compensation_val = -1;       
 122:Core/Src/temp.c ****     }    
 123:Core/Src/temp.c ****     else if(temp_volt>TEMP_ZONE12_THRESHOLD)
  88              		.loc 1 123 10 is_stmt 1 view .LVU24
  89              		.loc 1 123 12 is_stmt 0 view .LVU25
  90 006e 40F2FD63 		movw	r3, #1789
  91 0072 9842     		cmp	r0, r3
  92 0074 00F22582 		bhi	.L14
 124:Core/Src/temp.c ****     {
 125:Core/Src/temp.c ****         Compensation_val = 0;       
 126:Core/Src/temp.c ****     }    
 127:Core/Src/temp.c ****     else if(temp_volt>TEMP_ZONE13_THRESHOLD)
  93              		.loc 1 127 10 is_stmt 1 view .LVU26
  94              		.loc 1 127 12 is_stmt 0 view .LVU27
  95 0078 40F2F963 		movw	r3, #1785
  96 007c 9842     		cmp	r0, r3
  97 007e 00F22282 		bhi	.L15
 128:Core/Src/temp.c ****     {
 129:Core/Src/temp.c ****         Compensation_val = 1;       
 130:Core/Src/temp.c ****     }    
 131:Core/Src/temp.c ****     else if(temp_volt>TEMP_ZONE14_THRESHOLD)
  98              		.loc 1 131 10 is_stmt 1 view .LVU28
ARM GAS  C:\Users\jisu8\AppData\Local\Temp\ccM0cXAp.s 			page 5


  99              		.loc 1 131 12 is_stmt 0 view .LVU29
 100 0082 40F2F563 		movw	r3, #1781
 101 0086 9842     		cmp	r0, r3
 102 0088 00F21F82 		bhi	.L16
 132:Core/Src/temp.c ****     {
 133:Core/Src/temp.c ****         Compensation_val = 2;       
 134:Core/Src/temp.c ****     }    
 135:Core/Src/temp.c ****     else if(temp_volt>TEMP_ZONE15_THRESHOLD)
 103              		.loc 1 135 10 is_stmt 1 view .LVU30
 104              		.loc 1 135 12 is_stmt 0 view .LVU31
 105 008c 40F2F163 		movw	r3, #1777
 106 0090 9842     		cmp	r0, r3
 107 0092 00F21C82 		bhi	.L17
 136:Core/Src/temp.c ****     {
 137:Core/Src/temp.c ****         Compensation_val = 3;       
 138:Core/Src/temp.c ****     }    
 139:Core/Src/temp.c ****     else if(temp_volt>TEMP_ZONE16_THRESHOLD)
 108              		.loc 1 139 10 is_stmt 1 view .LVU32
 109              		.loc 1 139 12 is_stmt 0 view .LVU33
 110 0096 40F2ED63 		movw	r3, #1773
 111 009a 9842     		cmp	r0, r3
 112 009c 00F21982 		bhi	.L18
 140:Core/Src/temp.c ****     {
 141:Core/Src/temp.c ****         Compensation_val = 4;       
 142:Core/Src/temp.c ****     }    
 143:Core/Src/temp.c ****     else if(temp_volt>TEMP_ZONE17_THRESHOLD)
 113              		.loc 1 143 10 is_stmt 1 view .LVU34
 114              		.loc 1 143 12 is_stmt 0 view .LVU35
 115 00a0 40F2E963 		movw	r3, #1769
 116 00a4 9842     		cmp	r0, r3
 117 00a6 00F21682 		bhi	.L19
 144:Core/Src/temp.c ****     {
 145:Core/Src/temp.c ****         Compensation_val = 5;       
 146:Core/Src/temp.c ****     }    
 147:Core/Src/temp.c ****     else if(temp_volt>TEMP_ZONE18_THRESHOLD)
 118              		.loc 1 147 10 is_stmt 1 view .LVU36
 119              		.loc 1 147 12 is_stmt 0 view .LVU37
 120 00aa 40F2E563 		movw	r3, #1765
 121 00ae 9842     		cmp	r0, r3
 122 00b0 00F21382 		bhi	.L20
 148:Core/Src/temp.c ****     {
 149:Core/Src/temp.c ****         Compensation_val = 6;       
 150:Core/Src/temp.c ****     }    
 151:Core/Src/temp.c ****     else if(temp_volt>TEMP_ZONE19_THRESHOLD)
 123              		.loc 1 151 10 is_stmt 1 view .LVU38
 124              		.loc 1 151 12 is_stmt 0 view .LVU39
 125 00b4 40F2E163 		movw	r3, #1761
 126 00b8 9842     		cmp	r0, r3
 127 00ba 00F21082 		bhi	.L21
 152:Core/Src/temp.c ****     {
 153:Core/Src/temp.c ****         Compensation_val = 7;       
 154:Core/Src/temp.c ****     }    
 155:Core/Src/temp.c ****     else if(temp_volt>TEMP_ZONE20_THRESHOLD)
 128              		.loc 1 155 10 is_stmt 1 view .LVU40
 129              		.loc 1 155 12 is_stmt 0 view .LVU41
 130 00be 40F2DD63 		movw	r3, #1757
 131 00c2 9842     		cmp	r0, r3
ARM GAS  C:\Users\jisu8\AppData\Local\Temp\ccM0cXAp.s 			page 6


 132 00c4 00F20D82 		bhi	.L22
 156:Core/Src/temp.c ****     {
 157:Core/Src/temp.c ****         Compensation_val = 8;       
 158:Core/Src/temp.c ****     }    
 159:Core/Src/temp.c ****     else if(temp_volt>TEMP_ZONE21_THRESHOLD)
 133              		.loc 1 159 10 is_stmt 1 view .LVU42
 134              		.loc 1 159 12 is_stmt 0 view .LVU43
 135 00c8 40F2D963 		movw	r3, #1753
 136 00cc 9842     		cmp	r0, r3
 137 00ce 00F20A82 		bhi	.L23
 160:Core/Src/temp.c ****     {
 161:Core/Src/temp.c ****         Compensation_val = 9;       
 162:Core/Src/temp.c ****     }    
 163:Core/Src/temp.c ****     else if(temp_volt>TEMP_ZONE22_THRESHOLD)
 138              		.loc 1 163 10 is_stmt 1 view .LVU44
 139              		.loc 1 163 12 is_stmt 0 view .LVU45
 140 00d2 40F2D363 		movw	r3, #1747
 141 00d6 9842     		cmp	r0, r3
 142 00d8 00F20782 		bhi	.L24
 164:Core/Src/temp.c ****     {
 165:Core/Src/temp.c ****         Compensation_val = 10;       
 166:Core/Src/temp.c ****     }    
 167:Core/Src/temp.c ****     else if(temp_volt>TEMP_ZONE23_THRESHOLD)
 143              		.loc 1 167 10 is_stmt 1 view .LVU46
 144              		.loc 1 167 12 is_stmt 0 view .LVU47
 145 00dc 40F2CD63 		movw	r3, #1741
 146 00e0 9842     		cmp	r0, r3
 147 00e2 00F20482 		bhi	.L25
 168:Core/Src/temp.c ****     {
 169:Core/Src/temp.c ****         Compensation_val = 11;       
 170:Core/Src/temp.c ****     }    
 171:Core/Src/temp.c ****     else if(temp_volt>TEMP_ZONE24_THRESHOLD)
 148              		.loc 1 171 10 is_stmt 1 view .LVU48
 149              		.loc 1 171 12 is_stmt 0 view .LVU49
 150 00e6 40F2C663 		movw	r3, #1734
 151 00ea 9842     		cmp	r0, r3
 152 00ec 00F20182 		bhi	.L26
 172:Core/Src/temp.c ****     {
 173:Core/Src/temp.c ****         Compensation_val = 12;       
 174:Core/Src/temp.c ****     }    
 175:Core/Src/temp.c ****     else if(temp_volt>TEMP_ZONE25_THRESHOLD)
 153              		.loc 1 175 10 is_stmt 1 view .LVU50
 154              		.loc 1 175 12 is_stmt 0 view .LVU51
 155 00f0 B0F5D86F 		cmp	r0, #1728
 156 00f4 00F2FF81 		bhi	.L27
 176:Core/Src/temp.c ****     {
 177:Core/Src/temp.c ****         Compensation_val = 13;       
 178:Core/Src/temp.c ****     }    
 179:Core/Src/temp.c ****     else if(temp_volt>TEMP_ZONE26_THRESHOLD)
 157              		.loc 1 179 10 is_stmt 1 view .LVU52
 158              		.loc 1 179 12 is_stmt 0 view .LVU53
 159 00f8 40F2BA63 		movw	r3, #1722
 160 00fc 9842     		cmp	r0, r3
 161 00fe 00F2FC81 		bhi	.L28
 180:Core/Src/temp.c ****     {
 181:Core/Src/temp.c ****         Compensation_val = 14;       
 182:Core/Src/temp.c ****     }    
ARM GAS  C:\Users\jisu8\AppData\Local\Temp\ccM0cXAp.s 			page 7


 183:Core/Src/temp.c ****     else if(temp_volt>TEMP_ZONE27_THRESHOLD)
 162              		.loc 1 183 10 is_stmt 1 view .LVU54
 163              		.loc 1 183 12 is_stmt 0 view .LVU55
 164 0102 40F2B263 		movw	r3, #1714
 165 0106 9842     		cmp	r0, r3
 166 0108 00F2F981 		bhi	.L29
 184:Core/Src/temp.c ****     {
 185:Core/Src/temp.c ****         Compensation_val = 15;       
 186:Core/Src/temp.c ****     }    
 187:Core/Src/temp.c ****     else if(temp_volt>TEMP_ZONE28_THRESHOLD)
 167              		.loc 1 187 10 is_stmt 1 view .LVU56
 168              		.loc 1 187 12 is_stmt 0 view .LVU57
 169 010c 40F2AD63 		movw	r3, #1709
 170 0110 9842     		cmp	r0, r3
 171 0112 00F2F681 		bhi	.L30
 188:Core/Src/temp.c ****     {
 189:Core/Src/temp.c ****         Compensation_val = 16;       
 190:Core/Src/temp.c ****     }    
 191:Core/Src/temp.c ****     else if(temp_volt>TEMP_ZONE29_THRESHOLD)
 172              		.loc 1 191 10 is_stmt 1 view .LVU58
 173              		.loc 1 191 12 is_stmt 0 view .LVU59
 174 0116 B0F5D56F 		cmp	r0, #1704
 175 011a 80F0F481 		bcs	.L31
 192:Core/Src/temp.c ****     {
 193:Core/Src/temp.c ****         Compensation_val = 17;       
 194:Core/Src/temp.c ****     }    
 195:Core/Src/temp.c ****     else if(temp_volt>TEMP_ZONE30_THRESHOLD)
 176              		.loc 1 195 10 is_stmt 1 view .LVU60
 177              		.loc 1 195 12 is_stmt 0 view .LVU61
 178 011e 40F2A163 		movw	r3, #1697
 179 0122 9842     		cmp	r0, r3
 180 0124 00F2F181 		bhi	.L32
 196:Core/Src/temp.c ****     {
 197:Core/Src/temp.c ****         Compensation_val = 18;       
 198:Core/Src/temp.c ****     }    
 199:Core/Src/temp.c ****     else if(temp_volt>TEMP_ZONE31_THRESHOLD)
 181              		.loc 1 199 10 is_stmt 1 view .LVU62
 182              		.loc 1 199 12 is_stmt 0 view .LVU63
 183 0128 40F29B63 		movw	r3, #1691
 184 012c 9842     		cmp	r0, r3
 185 012e 00F2EE81 		bhi	.L33
 200:Core/Src/temp.c ****     {
 201:Core/Src/temp.c ****         Compensation_val = 19;       
 202:Core/Src/temp.c ****     }    
 203:Core/Src/temp.c ****     else if(temp_volt>TEMP_ZONE32_THRESHOLD)
 186              		.loc 1 203 10 is_stmt 1 view .LVU64
 187              		.loc 1 203 12 is_stmt 0 view .LVU65
 188 0132 40F29363 		movw	r3, #1683
 189 0136 9842     		cmp	r0, r3
 190 0138 00F2EB81 		bhi	.L34
 204:Core/Src/temp.c ****     {
 205:Core/Src/temp.c ****         Compensation_val = 20;       
 206:Core/Src/temp.c ****     }    
 207:Core/Src/temp.c ****     else if(temp_volt>TEMP_ZONE33_THRESHOLD)
 191              		.loc 1 207 10 is_stmt 1 view .LVU66
 192              		.loc 1 207 12 is_stmt 0 view .LVU67
 193 013c 40F28C63 		movw	r3, #1676
ARM GAS  C:\Users\jisu8\AppData\Local\Temp\ccM0cXAp.s 			page 8


 194 0140 9842     		cmp	r0, r3
 195 0142 00F2E881 		bhi	.L35
 208:Core/Src/temp.c ****     {
 209:Core/Src/temp.c ****         Compensation_val = 21;       
 210:Core/Src/temp.c ****     }    
 211:Core/Src/temp.c ****     else if(temp_volt>TEMP_ZONE34_THRESHOLD)
 196              		.loc 1 211 10 is_stmt 1 view .LVU68
 197              		.loc 1 211 12 is_stmt 0 view .LVU69
 198 0146 40F28563 		movw	r3, #1669
 199 014a 9842     		cmp	r0, r3
 200 014c 00F2E581 		bhi	.L36
 212:Core/Src/temp.c ****     {
 213:Core/Src/temp.c ****         Compensation_val = 22;       
 214:Core/Src/temp.c ****     }    
 215:Core/Src/temp.c ****     else if(temp_volt>TEMP_ZONE35_THRESHOLD)
 201              		.loc 1 215 10 is_stmt 1 view .LVU70
 202              		.loc 1 215 12 is_stmt 0 view .LVU71
 203 0150 40F27E63 		movw	r3, #1662
 204 0154 9842     		cmp	r0, r3
 205 0156 00F2E281 		bhi	.L37
 216:Core/Src/temp.c ****     {
 217:Core/Src/temp.c ****         Compensation_val = 23;       
 218:Core/Src/temp.c ****     }    
 219:Core/Src/temp.c ****     else if(temp_volt>TEMP_ZONE36_THRESHOLD)
 206              		.loc 1 219 10 is_stmt 1 view .LVU72
 207              		.loc 1 219 12 is_stmt 0 view .LVU73
 208 015a B0F5CF6F 		cmp	r0, #1656
 209 015e 80F0E081 		bcs	.L38
 220:Core/Src/temp.c ****     {
 221:Core/Src/temp.c ****         Compensation_val = 24;       
 222:Core/Src/temp.c ****     }    
 223:Core/Src/temp.c ****     else if(temp_volt>TEMP_ZONE37_THRESHOLD)
 210              		.loc 1 223 10 is_stmt 1 view .LVU74
 211              		.loc 1 223 12 is_stmt 0 view .LVU75
 212 0162 B0F5CE6F 		cmp	r0, #1648
 213 0166 00F2DE81 		bhi	.L39
 224:Core/Src/temp.c ****     {
 225:Core/Src/temp.c ****         Compensation_val = 25;       
 226:Core/Src/temp.c ****     }    
 227:Core/Src/temp.c ****     else if(temp_volt>TEMP_ZONE38_THRESHOLD)
 214              		.loc 1 227 10 is_stmt 1 view .LVU76
 215              		.loc 1 227 12 is_stmt 0 view .LVU77
 216 016a 40F26963 		movw	r3, #1641
 217 016e 9842     		cmp	r0, r3
 218 0170 00F2DB81 		bhi	.L40
 228:Core/Src/temp.c ****     {
 229:Core/Src/temp.c ****         Compensation_val = 26;       
 230:Core/Src/temp.c ****     }    
 231:Core/Src/temp.c ****     else if(temp_volt>TEMP_ZONE39_THRESHOLD)
 219              		.loc 1 231 10 is_stmt 1 view .LVU78
 220              		.loc 1 231 12 is_stmt 0 view .LVU79
 221 0174 40F26263 		movw	r3, #1634
 222 0178 9842     		cmp	r0, r3
 223 017a 00F2D881 		bhi	.L41
 232:Core/Src/temp.c ****     {
 233:Core/Src/temp.c ****         Compensation_val = 27;       
 234:Core/Src/temp.c ****     }    
ARM GAS  C:\Users\jisu8\AppData\Local\Temp\ccM0cXAp.s 			page 9


 235:Core/Src/temp.c ****     else if(temp_volt>TEMP_ZONE40_THRESHOLD)
 224              		.loc 1 235 10 is_stmt 1 view .LVU80
 225              		.loc 1 235 12 is_stmt 0 view .LVU81
 226 017e 40F25B63 		movw	r3, #1627
 227 0182 9842     		cmp	r0, r3
 228 0184 00F2D581 		bhi	.L42
 236:Core/Src/temp.c ****     {
 237:Core/Src/temp.c ****         Compensation_val = 28;       
 238:Core/Src/temp.c ****     }    
 239:Core/Src/temp.c ****     else if(temp_volt>TEMP_ZONE41_THRESHOLD)
 229              		.loc 1 239 10 is_stmt 1 view .LVU82
 230              		.loc 1 239 12 is_stmt 0 view .LVU83
 231 0188 40F25463 		movw	r3, #1620
 232 018c 9842     		cmp	r0, r3
 233 018e 00F2D281 		bhi	.L43
 240:Core/Src/temp.c ****     {
 241:Core/Src/temp.c ****         Compensation_val = 29;       
 242:Core/Src/temp.c ****     }    
 243:Core/Src/temp.c ****     else if(temp_volt>TEMP_ZONE42_THRESHOLD)
 234              		.loc 1 243 10 is_stmt 1 view .LVU84
 235              		.loc 1 243 12 is_stmt 0 view .LVU85
 236 0192 40F24C63 		movw	r3, #1612
 237 0196 9842     		cmp	r0, r3
 238 0198 00F2CF81 		bhi	.L44
 244:Core/Src/temp.c ****     {
 245:Core/Src/temp.c ****         Compensation_val = 30;       
 246:Core/Src/temp.c ****     }    
 247:Core/Src/temp.c ****     else if(temp_volt>TEMP_ZONE43_THRESHOLD)
 239              		.loc 1 247 10 is_stmt 1 view .LVU86
 240              		.loc 1 247 12 is_stmt 0 view .LVU87
 241 019c 40F24363 		movw	r3, #1603
 242 01a0 9842     		cmp	r0, r3
 243 01a2 00F2CC81 		bhi	.L45
 248:Core/Src/temp.c ****     {
 249:Core/Src/temp.c ****         Compensation_val = 31;       
 250:Core/Src/temp.c ****     }    
 251:Core/Src/temp.c ****     else if(temp_volt>TEMP_ZONE44_THRESHOLD)
 244              		.loc 1 251 10 is_stmt 1 view .LVU88
 245              		.loc 1 251 12 is_stmt 0 view .LVU89
 246 01a6 40F23B63 		movw	r3, #1595
 247 01aa 9842     		cmp	r0, r3
 248 01ac 00F2C981 		bhi	.L46
 252:Core/Src/temp.c ****     {
 253:Core/Src/temp.c ****         Compensation_val = 32;       
 254:Core/Src/temp.c ****     }    
 255:Core/Src/temp.c ****     else if(temp_volt>TEMP_ZONE45_THRESHOLD)
 249              		.loc 1 255 10 is_stmt 1 view .LVU90
 250              		.loc 1 255 12 is_stmt 0 view .LVU91
 251 01b0 40F23263 		movw	r3, #1586
 252 01b4 9842     		cmp	r0, r3
 253 01b6 00F2C681 		bhi	.L47
 256:Core/Src/temp.c ****     {
 257:Core/Src/temp.c ****         Compensation_val = 33;       
 258:Core/Src/temp.c ****     }    
 259:Core/Src/temp.c ****     else if(temp_volt>TEMP_ZONE46_THRESHOLD)
 254              		.loc 1 259 10 is_stmt 1 view .LVU92
 255              		.loc 1 259 12 is_stmt 0 view .LVU93
ARM GAS  C:\Users\jisu8\AppData\Local\Temp\ccM0cXAp.s 			page 10


 256 01ba 40F22A63 		movw	r3, #1578
 257 01be 9842     		cmp	r0, r3
 258 01c0 00F2C381 		bhi	.L48
 260:Core/Src/temp.c ****     {
 261:Core/Src/temp.c ****         Compensation_val = 34;       
 262:Core/Src/temp.c ****     }    
 263:Core/Src/temp.c ****     else if(temp_volt>TEMP_ZONE47_THRESHOLD)
 259              		.loc 1 263 10 is_stmt 1 view .LVU94
 260              		.loc 1 263 12 is_stmt 0 view .LVU95
 261 01c4 40F22263 		movw	r3, #1570
 262 01c8 9842     		cmp	r0, r3
 263 01ca 00F2C081 		bhi	.L49
 264:Core/Src/temp.c ****     {
 265:Core/Src/temp.c ****         Compensation_val = 35;       
 266:Core/Src/temp.c ****     }    
 267:Core/Src/temp.c ****     else if(temp_volt>TEMP_ZONE48_THRESHOLD)
 264              		.loc 1 267 10 is_stmt 1 view .LVU96
 265              		.loc 1 267 12 is_stmt 0 view .LVU97
 266 01ce 40F21963 		movw	r3, #1561
 267 01d2 9842     		cmp	r0, r3
 268 01d4 00F2BD81 		bhi	.L50
 268:Core/Src/temp.c ****     {
 269:Core/Src/temp.c ****         Compensation_val = 36;       
 270:Core/Src/temp.c ****     }    
 271:Core/Src/temp.c ****     else if(temp_volt>TEMP_ZONE49_THRESHOLD)
 269              		.loc 1 271 10 is_stmt 1 view .LVU98
 270              		.loc 1 271 12 is_stmt 0 view .LVU99
 271 01d8 40F21163 		movw	r3, #1553
 272 01dc 9842     		cmp	r0, r3
 273 01de 00F2BA81 		bhi	.L51
 272:Core/Src/temp.c ****     {
 273:Core/Src/temp.c ****         Compensation_val = 37;       
 274:Core/Src/temp.c ****     }    
 275:Core/Src/temp.c ****     else if(temp_volt>TEMP_ZONE50_THRESHOLD)
 274              		.loc 1 275 10 is_stmt 1 view .LVU100
 275              		.loc 1 275 12 is_stmt 0 view .LVU101
 276 01e2 B0F5C16F 		cmp	r0, #1544
 277 01e6 00F2B881 		bhi	.L52
 276:Core/Src/temp.c ****     {
 277:Core/Src/temp.c ****         Compensation_val = 38;       
 278:Core/Src/temp.c ****     }    
 279:Core/Src/temp.c ****     else if(temp_volt>TEMP_ZONE51_THRESHOLD)
 278              		.loc 1 279 10 is_stmt 1 view .LVU102
 279              		.loc 1 279 12 is_stmt 0 view .LVU103
 280 01ea B0F5C06F 		cmp	r0, #1536
 281 01ee 00F2B681 		bhi	.L53
 280:Core/Src/temp.c ****     {
 281:Core/Src/temp.c ****         Compensation_val = 39;       
 282:Core/Src/temp.c ****     }    
 283:Core/Src/temp.c ****     else if(temp_volt>TEMP_ZONE52_THRESHOLD)
 282              		.loc 1 283 10 is_stmt 1 view .LVU104
 283              		.loc 1 283 12 is_stmt 0 view .LVU105
 284 01f2 40F2F653 		movw	r3, #1526
 285 01f6 9842     		cmp	r0, r3
 286 01f8 00F2B381 		bhi	.L54
 284:Core/Src/temp.c ****     {
 285:Core/Src/temp.c ****         Compensation_val = 40;       
ARM GAS  C:\Users\jisu8\AppData\Local\Temp\ccM0cXAp.s 			page 11


 286:Core/Src/temp.c ****     }    
 287:Core/Src/temp.c ****     else if(temp_volt>TEMP_ZONE53_THRESHOLD)
 287              		.loc 1 287 10 is_stmt 1 view .LVU106
 288              		.loc 1 287 12 is_stmt 0 view .LVU107
 289 01fc 40F2EC53 		movw	r3, #1516
 290 0200 9842     		cmp	r0, r3
 291 0202 00F2B081 		bhi	.L55
 288:Core/Src/temp.c ****     {
 289:Core/Src/temp.c ****         Compensation_val = 41;       
 290:Core/Src/temp.c ****     }    
 291:Core/Src/temp.c ****     else if(temp_volt>TEMP_ZONE54_THRESHOLD)
 292              		.loc 1 291 10 is_stmt 1 view .LVU108
 293              		.loc 1 291 12 is_stmt 0 view .LVU109
 294 0206 40F2E253 		movw	r3, #1506
 295 020a 9842     		cmp	r0, r3
 296 020c 00F2AD81 		bhi	.L56
 292:Core/Src/temp.c ****     {
 293:Core/Src/temp.c ****         Compensation_val = 42;       
 294:Core/Src/temp.c ****     }    
 295:Core/Src/temp.c ****     else if(temp_volt>TEMP_ZONE55_THRESHOLD)
 297              		.loc 1 295 10 is_stmt 1 view .LVU110
 298              		.loc 1 295 12 is_stmt 0 view .LVU111
 299 0210 B0F5BB6F 		cmp	r0, #1496
 300 0214 00F2AB81 		bhi	.L57
 296:Core/Src/temp.c ****     {
 297:Core/Src/temp.c ****         Compensation_val = 43;       
 298:Core/Src/temp.c ****     }    
 299:Core/Src/temp.c ****     else if(temp_volt>TEMP_ZONE56_THRESHOLD)
 301              		.loc 1 299 10 is_stmt 1 view .LVU112
 302              		.loc 1 299 12 is_stmt 0 view .LVU113
 303 0218 40F2CE53 		movw	r3, #1486
 304 021c 9842     		cmp	r0, r3
 305 021e 00F2A881 		bhi	.L58
 300:Core/Src/temp.c ****     {
 301:Core/Src/temp.c ****         Compensation_val = 44;       
 302:Core/Src/temp.c ****     }    
 303:Core/Src/temp.c ****     else if(temp_volt>TEMP_ZONE57_THRESHOLD)
 306              		.loc 1 303 10 is_stmt 1 view .LVU114
 307              		.loc 1 303 12 is_stmt 0 view .LVU115
 308 0222 40F2C453 		movw	r3, #1476
 309 0226 9842     		cmp	r0, r3
 310 0228 00F2A581 		bhi	.L59
 304:Core/Src/temp.c ****     {
 305:Core/Src/temp.c ****         Compensation_val = 45;       
 306:Core/Src/temp.c ****     }    
 307:Core/Src/temp.c ****     else if(temp_volt>TEMP_ZONE58_THRESHOLD)
 311              		.loc 1 307 10 is_stmt 1 view .LVU116
 312              		.loc 1 307 12 is_stmt 0 view .LVU117
 313 022c 40F2BA53 		movw	r3, #1466
 314 0230 9842     		cmp	r0, r3
 315 0232 00F2A281 		bhi	.L60
 308:Core/Src/temp.c ****     {
 309:Core/Src/temp.c ****         Compensation_val = 46;       
 310:Core/Src/temp.c ****     }    
 311:Core/Src/temp.c ****     else if(temp_volt>TEMP_ZONE59_THRESHOLD)
 316              		.loc 1 311 10 is_stmt 1 view .LVU118
 317              		.loc 1 311 12 is_stmt 0 view .LVU119
ARM GAS  C:\Users\jisu8\AppData\Local\Temp\ccM0cXAp.s 			page 12


 318 0236 B0F5B66F 		cmp	r0, #1456
 319 023a 00F2A081 		bhi	.L61
 312:Core/Src/temp.c ****     {
 313:Core/Src/temp.c ****         Compensation_val = 47;       
 314:Core/Src/temp.c ****     }    
 315:Core/Src/temp.c ****     else if(temp_volt>TEMP_ZONE60_THRESHOLD)
 320              		.loc 1 315 10 is_stmt 1 view .LVU120
 321              		.loc 1 315 12 is_stmt 0 view .LVU121
 322 023e 40F2A653 		movw	r3, #1446
 323 0242 9842     		cmp	r0, r3
 324 0244 00F29D81 		bhi	.L62
 316:Core/Src/temp.c ****     {
 317:Core/Src/temp.c ****         Compensation_val = 48;       
 318:Core/Src/temp.c ****     }    
 319:Core/Src/temp.c ****     else if(temp_volt>TEMP_ZONE61_THRESHOLD)
 325              		.loc 1 319 10 is_stmt 1 view .LVU122
 326              		.loc 1 319 12 is_stmt 0 view .LVU123
 327 0248 40F29C53 		movw	r3, #1436
 328 024c 9842     		cmp	r0, r3
 329 024e 00F29A81 		bhi	.L63
 320:Core/Src/temp.c ****     {
 321:Core/Src/temp.c ****         Compensation_val = 49;       
 322:Core/Src/temp.c ****     }    
 323:Core/Src/temp.c ****     else if(temp_volt>TEMP_ZONE62_THRESHOLD)
 330              		.loc 1 323 10 is_stmt 1 view .LVU124
 331              		.loc 1 323 12 is_stmt 0 view .LVU125
 332 0252 B0F5B26F 		cmp	r0, #1424
 333 0256 80F09881 		bcs	.L64
 324:Core/Src/temp.c ****     {
 325:Core/Src/temp.c ****         Compensation_val = 50;       
 326:Core/Src/temp.c ****     }    
 327:Core/Src/temp.c ****     else if(temp_volt>TEMP_ZONE63_THRESHOLD)
 334              		.loc 1 327 10 is_stmt 1 view .LVU126
 335              		.loc 1 327 12 is_stmt 0 view .LVU127
 336 025a 40F28253 		movw	r3, #1410
 337 025e 9842     		cmp	r0, r3
 338 0260 00F29581 		bhi	.L65
 328:Core/Src/temp.c ****     {
 329:Core/Src/temp.c ****         Compensation_val = 51;       
 330:Core/Src/temp.c ****     }    
 331:Core/Src/temp.c ****     else if(temp_volt>TEMP_ZONE64_THRESHOLD)
 339              		.loc 1 331 10 is_stmt 1 view .LVU128
 340              		.loc 1 331 12 is_stmt 0 view .LVU129
 341 0264 40F27553 		movw	r3, #1397
 342 0268 9842     		cmp	r0, r3
 343 026a 00F29281 		bhi	.L66
 332:Core/Src/temp.c ****     {
 333:Core/Src/temp.c ****         Compensation_val = 52;       
 334:Core/Src/temp.c ****     }    
 335:Core/Src/temp.c ****     else if(temp_volt>TEMP_ZONE65_THRESHOLD)
 344              		.loc 1 335 10 is_stmt 1 view .LVU130
 345              		.loc 1 335 12 is_stmt 0 view .LVU131
 346 026e B0F5AD6F 		cmp	r0, #1384
 347 0272 00F29081 		bhi	.L67
 336:Core/Src/temp.c ****     {
 337:Core/Src/temp.c ****         Compensation_val = 53;       
 338:Core/Src/temp.c ****     }    
ARM GAS  C:\Users\jisu8\AppData\Local\Temp\ccM0cXAp.s 			page 13


 339:Core/Src/temp.c ****     else if(temp_volt>TEMP_ZONE66_THRESHOLD)
 348              		.loc 1 339 10 is_stmt 1 view .LVU132
 349              		.loc 1 339 12 is_stmt 0 view .LVU133
 350 0276 40F25B53 		movw	r3, #1371
 351 027a 9842     		cmp	r0, r3
 352 027c 00F28D81 		bhi	.L68
 340:Core/Src/temp.c ****     {
 341:Core/Src/temp.c ****         Compensation_val = 54;       
 342:Core/Src/temp.c ****     }    
 343:Core/Src/temp.c ****     else if(temp_volt>TEMP_ZONE67_THRESHOLD)
 353              		.loc 1 343 10 is_stmt 1 view .LVU134
 354              		.loc 1 343 12 is_stmt 0 view .LVU135
 355 0280 40F24E53 		movw	r3, #1358
 356 0284 9842     		cmp	r0, r3
 357 0286 00F28A81 		bhi	.L69
 344:Core/Src/temp.c ****     {
 345:Core/Src/temp.c ****         Compensation_val = 55;       
 346:Core/Src/temp.c ****     }    
 347:Core/Src/temp.c ****     else if(temp_volt>TEMP_ZONE68_THRESHOLD)
 358              		.loc 1 347 10 is_stmt 1 view .LVU136
 359              		.loc 1 347 12 is_stmt 0 view .LVU137
 360 028a 40F24153 		movw	r3, #1345
 361 028e 9842     		cmp	r0, r3
 362 0290 00F28781 		bhi	.L70
 348:Core/Src/temp.c ****     {
 349:Core/Src/temp.c ****         Compensation_val = 56;       
 350:Core/Src/temp.c ****     }    
 351:Core/Src/temp.c ****     else if(temp_volt>TEMP_ZONE69_THRESHOLD)
 363              		.loc 1 351 10 is_stmt 1 view .LVU138
 364              		.loc 1 351 12 is_stmt 0 view .LVU139
 365 0294 40F23453 		movw	r3, #1332
 366 0298 9842     		cmp	r0, r3
 367 029a 00F28481 		bhi	.L71
 352:Core/Src/temp.c ****     {
 353:Core/Src/temp.c ****         Compensation_val = 57;       
 354:Core/Src/temp.c ****     }    
 355:Core/Src/temp.c ****     else if(temp_volt>TEMP_ZONE70_THRESHOLD)
 368              		.loc 1 355 10 is_stmt 1 view .LVU140
 369              		.loc 1 355 12 is_stmt 0 view .LVU141
 370 029e B0F5A56F 		cmp	r0, #1320
 371 02a2 80F08281 		bcs	.L72
 356:Core/Src/temp.c ****     {
 357:Core/Src/temp.c ****         Compensation_val = 58;       
 358:Core/Src/temp.c ****     }    
 359:Core/Src/temp.c ****     else if(temp_volt>TEMP_ZONE71_THRESHOLD)
 372              		.loc 1 359 10 is_stmt 1 view .LVU142
 373              		.loc 1 359 12 is_stmt 0 view .LVU143
 374 02a6 40F21A53 		movw	r3, #1306
 375 02aa 9842     		cmp	r0, r3
 376 02ac 00F27F81 		bhi	.L73
 360:Core/Src/temp.c ****     {
 361:Core/Src/temp.c ****         Compensation_val = 59;       
 362:Core/Src/temp.c ****     }    
 363:Core/Src/temp.c ****     else if(temp_volt>TEMP_ZONE72_THRESHOLD)
 377              		.loc 1 363 10 is_stmt 1 view .LVU144
 378              		.loc 1 363 12 is_stmt 0 view .LVU145
 379 02b0 40F20D53 		movw	r3, #1293
ARM GAS  C:\Users\jisu8\AppData\Local\Temp\ccM0cXAp.s 			page 14


 380 02b4 9842     		cmp	r0, r3
 381 02b6 00F27C81 		bhi	.L74
 364:Core/Src/temp.c ****     {
 365:Core/Src/temp.c ****         Compensation_val = 60;       
 366:Core/Src/temp.c ****     }    
 367:Core/Src/temp.c ****     else if(temp_volt>TEMP_ZONE73_THRESHOLD)
 382              		.loc 1 367 10 is_stmt 1 view .LVU146
 383              		.loc 1 367 12 is_stmt 0 view .LVU147
 384 02ba B0F5A06F 		cmp	r0, #1280
 385 02be 00F27A81 		bhi	.L75
 368:Core/Src/temp.c ****     {
 369:Core/Src/temp.c ****         Compensation_val = 61;       
 370:Core/Src/temp.c ****     }    
 371:Core/Src/temp.c ****     else if(temp_volt>TEMP_ZONE74_THRESHOLD)
 386              		.loc 1 371 10 is_stmt 1 view .LVU148
 387              		.loc 1 371 12 is_stmt 0 view .LVU149
 388 02c2 40F2F443 		movw	r3, #1268
 389 02c6 9842     		cmp	r0, r3
 390 02c8 00F27781 		bhi	.L76
 372:Core/Src/temp.c ****     {
 373:Core/Src/temp.c ****         Compensation_val = 62;       
 374:Core/Src/temp.c ****     }    
 375:Core/Src/temp.c ****     else if(temp_volt>TEMP_ZONE75_THRESHOLD)
 391              		.loc 1 375 10 is_stmt 1 view .LVU150
 392              		.loc 1 375 12 is_stmt 0 view .LVU151
 393 02cc B0F59D6F 		cmp	r0, #1256
 394 02d0 80F07581 		bcs	.L77
 376:Core/Src/temp.c ****     {
 377:Core/Src/temp.c ****         Compensation_val = 63;       
 378:Core/Src/temp.c ****     }    
 379:Core/Src/temp.c ****     else if(temp_volt>TEMP_ZONE76_THRESHOLD)
 395              		.loc 1 379 10 is_stmt 1 view .LVU152
 396              		.loc 1 379 12 is_stmt 0 view .LVU153
 397 02d4 40F2DA43 		movw	r3, #1242
 398 02d8 9842     		cmp	r0, r3
 399 02da 00F27281 		bhi	.L78
 380:Core/Src/temp.c ****     {
 381:Core/Src/temp.c ****         Compensation_val = 64;       
 382:Core/Src/temp.c ****     }    
 383:Core/Src/temp.c ****     else if(temp_volt>TEMP_ZONE77_THRESHOLD)
 400              		.loc 1 383 10 is_stmt 1 view .LVU154
 401              		.loc 1 383 12 is_stmt 0 view .LVU155
 402 02de 40F2CD43 		movw	r3, #1229
 403 02e2 9842     		cmp	r0, r3
 404 02e4 00F26F81 		bhi	.L79
 384:Core/Src/temp.c ****     {
 385:Core/Src/temp.c ****         Compensation_val = 65;       
 386:Core/Src/temp.c ****     }    
 387:Core/Src/temp.c ****     else if(temp_volt>TEMP_ZONE78_THRESHOLD)
 405              		.loc 1 387 10 is_stmt 1 view .LVU156
 406              		.loc 1 387 12 is_stmt 0 view .LVU157
 407 02e8 B0F5986F 		cmp	r0, #1216
 408 02ec 00F26D81 		bhi	.L80
 388:Core/Src/temp.c ****     {
 389:Core/Src/temp.c ****         Compensation_val = 66;       
 390:Core/Src/temp.c ****     }    
 391:Core/Src/temp.c ****     else if(temp_volt>TEMP_ZONE79_THRESHOLD)
ARM GAS  C:\Users\jisu8\AppData\Local\Temp\ccM0cXAp.s 			page 15


 409              		.loc 1 391 10 is_stmt 1 view .LVU158
 410              		.loc 1 391 12 is_stmt 0 view .LVU159
 411 02f0 40F2B443 		movw	r3, #1204
 412 02f4 9842     		cmp	r0, r3
 413 02f6 00F26A81 		bhi	.L81
 392:Core/Src/temp.c ****     {
 393:Core/Src/temp.c ****         Compensation_val = 67;       
 394:Core/Src/temp.c ****     }    
 395:Core/Src/temp.c ****     else if(temp_volt>TEMP_ZONE80_THRESHOLD)
 414              		.loc 1 395 10 is_stmt 1 view .LVU160
 415              		.loc 1 395 12 is_stmt 0 view .LVU161
 416 02fa B0F5956F 		cmp	r0, #1192
 417 02fe 80F06881 		bcs	.L82
 396:Core/Src/temp.c ****     {
 397:Core/Src/temp.c ****         Compensation_val = 68;       
 398:Core/Src/temp.c ****     }    
 399:Core/Src/temp.c ****     else if(temp_volt>TEMP_ZONE81_THRESHOLD)
 418              		.loc 1 399 10 is_stmt 1 view .LVU162
 419              		.loc 1 399 12 is_stmt 0 view .LVU163
 420 0302 40F29A43 		movw	r3, #1178
 421 0306 9842     		cmp	r0, r3
 422 0308 00F26581 		bhi	.L83
 400:Core/Src/temp.c ****     {
 401:Core/Src/temp.c ****         Compensation_val = 69;       
 402:Core/Src/temp.c ****     }    
 403:Core/Src/temp.c ****     else if(temp_volt>TEMP_ZONE82_THRESHOLD)
 423              		.loc 1 403 10 is_stmt 1 view .LVU164
 424              		.loc 1 403 12 is_stmt 0 view .LVU165
 425 030c 40F28D43 		movw	r3, #1165
 426 0310 9842     		cmp	r0, r3
 427 0312 00F26281 		bhi	.L84
 404:Core/Src/temp.c ****     {
 405:Core/Src/temp.c ****         Compensation_val = 70;       
 406:Core/Src/temp.c ****     }    
 407:Core/Src/temp.c ****     else if(temp_volt>TEMP_ZONE83_THRESHOLD)
 428              		.loc 1 407 10 is_stmt 1 view .LVU166
 429              		.loc 1 407 12 is_stmt 0 view .LVU167
 430 0316 B0F5906F 		cmp	r0, #1152
 431 031a 80F06081 		bcs	.L85
 408:Core/Src/temp.c ****     {
 409:Core/Src/temp.c ****         Compensation_val = 71;       
 410:Core/Src/temp.c ****     }    
 411:Core/Src/temp.c ****     else if(temp_volt>TEMP_ZONE84_THRESHOLD)
 432              		.loc 1 411 10 is_stmt 1 view .LVU168
 433              		.loc 1 411 12 is_stmt 0 view .LVU169
 434 031e 40F27243 		movw	r3, #1138
 435 0322 9842     		cmp	r0, r3
 436 0324 00F25D81 		bhi	.L86
 412:Core/Src/temp.c ****     {
 413:Core/Src/temp.c ****         Compensation_val = 72;       
 414:Core/Src/temp.c ****     }    
 415:Core/Src/temp.c ****     else if(temp_volt>TEMP_ZONE85_THRESHOLD)
 437              		.loc 1 415 10 is_stmt 1 view .LVU170
 438              		.loc 1 415 12 is_stmt 0 view .LVU171
 439 0328 40F26443 		movw	r3, #1124
 440 032c 9842     		cmp	r0, r3
 441 032e 00F25A81 		bhi	.L87
ARM GAS  C:\Users\jisu8\AppData\Local\Temp\ccM0cXAp.s 			page 16


 416:Core/Src/temp.c ****     {
 417:Core/Src/temp.c ****         Compensation_val = 73;       
 418:Core/Src/temp.c ****     }    
 419:Core/Src/temp.c ****     else if(temp_volt>TEMP_ZONE86_THRESHOLD)
 442              		.loc 1 419 10 is_stmt 1 view .LVU172
 443              		.loc 1 419 12 is_stmt 0 view .LVU173
 444 0332 B0F58B6F 		cmp	r0, #1112
 445 0336 80F05881 		bcs	.L88
 420:Core/Src/temp.c ****     {
 421:Core/Src/temp.c ****         Compensation_val = 74;       
 422:Core/Src/temp.c ****     }    
 423:Core/Src/temp.c ****     else if(temp_volt>TEMP_ZONE87_THRESHOLD)
 446              		.loc 1 423 10 is_stmt 1 view .LVU174
 447              		.loc 1 423 12 is_stmt 0 view .LVU175
 448 033a 40F24A43 		movw	r3, #1098
 449 033e 9842     		cmp	r0, r3
 450 0340 00F25581 		bhi	.L89
 424:Core/Src/temp.c ****     {
 425:Core/Src/temp.c ****         Compensation_val = 75;       
 426:Core/Src/temp.c ****     }    
 427:Core/Src/temp.c ****     else if(temp_volt>TEMP_ZONE88_THRESHOLD)
 451              		.loc 1 427 10 is_stmt 1 view .LVU176
 452              		.loc 1 427 12 is_stmt 0 view .LVU177
 453 0344 40F23C43 		movw	r3, #1084
 454 0348 9842     		cmp	r0, r3
 455 034a 00F25281 		bhi	.L90
 428:Core/Src/temp.c ****     {
 429:Core/Src/temp.c ****         Compensation_val = 76;       
 430:Core/Src/temp.c ****     }    
 431:Core/Src/temp.c ****     else if(temp_volt>TEMP_ZONE89_THRESHOLD)
 456              		.loc 1 431 10 is_stmt 1 view .LVU178
 457              		.loc 1 431 12 is_stmt 0 view .LVU179
 458 034e B0F5866F 		cmp	r0, #1072
 459 0352 80F05081 		bcs	.L91
 432:Core/Src/temp.c ****     {
 433:Core/Src/temp.c ****         Compensation_val = 77;       
 434:Core/Src/temp.c ****     }    
 435:Core/Src/temp.c ****     else if(temp_volt>TEMP_ZONE90_THRESHOLD)
 460              		.loc 1 435 10 is_stmt 1 view .LVU180
 461              		.loc 1 435 12 is_stmt 0 view .LVU181
 462 0356 40F22143 		movw	r3, #1057
 463 035a 9842     		cmp	r0, r3
 464 035c 00F24D81 		bhi	.L92
 436:Core/Src/temp.c ****     {
 437:Core/Src/temp.c ****         Compensation_val = 78;       
 438:Core/Src/temp.c ****     }    
 439:Core/Src/temp.c ****     else if(temp_volt>TEMP_ZONE91_THRESHOLD)
 465              		.loc 1 439 10 is_stmt 1 view .LVU182
 466              		.loc 1 439 12 is_stmt 0 view .LVU183
 467 0360 40F21443 		movw	r3, #1044
 468 0364 9842     		cmp	r0, r3
 469 0366 00F24A81 		bhi	.L93
 440:Core/Src/temp.c ****     {
 441:Core/Src/temp.c ****         Compensation_val = 79;       
 442:Core/Src/temp.c ****     }    
 443:Core/Src/temp.c ****     else if(temp_volt>TEMP_ZONE92_THRESHOLD)
 470              		.loc 1 443 10 is_stmt 1 view .LVU184
ARM GAS  C:\Users\jisu8\AppData\Local\Temp\ccM0cXAp.s 			page 17


 471              		.loc 1 443 12 is_stmt 0 view .LVU185
 472 036a B0F5816F 		cmp	r0, #1032
 473 036e 80F04881 		bcs	.L94
 444:Core/Src/temp.c ****     {
 445:Core/Src/temp.c ****         Compensation_val = 80;       
 446:Core/Src/temp.c ****     }    
 447:Core/Src/temp.c ****     else if(temp_volt>TEMP_ZONE93_THRESHOLD)
 474              		.loc 1 447 10 is_stmt 1 view .LVU186
 475              		.loc 1 447 12 is_stmt 0 view .LVU187
 476 0372 40F2FA33 		movw	r3, #1018
 477 0376 9842     		cmp	r0, r3
 478 0378 00F24581 		bhi	.L95
 448:Core/Src/temp.c ****     {
 449:Core/Src/temp.c ****         Compensation_val = 81;       
 450:Core/Src/temp.c ****     }    
 451:Core/Src/temp.c ****     else if(temp_volt>TEMP_ZONE94_THRESHOLD)
 479              		.loc 1 451 10 is_stmt 1 view .LVU188
 480              		.loc 1 451 12 is_stmt 0 view .LVU189
 481 037c B0F57B7F 		cmp	r0, #1004
 482 0380 00F24381 		bhi	.L96
 452:Core/Src/temp.c ****     {
 453:Core/Src/temp.c ****         Compensation_val = 82;       
 454:Core/Src/temp.c ****     }    
 455:Core/Src/temp.c ****     else if(temp_volt>TEMP_ZONE95_THRESHOLD)
 483              		.loc 1 455 10 is_stmt 1 view .LVU190
 484              		.loc 1 455 12 is_stmt 0 view .LVU191
 485 0384 B0F5787F 		cmp	r0, #992
 486 0388 80F04181 		bcs	.L97
 456:Core/Src/temp.c ****     {
 457:Core/Src/temp.c ****         Compensation_val = 83;       
 458:Core/Src/temp.c ****     }    
 459:Core/Src/temp.c ****     else if(temp_volt>TEMP_ZONE96_THRESHOLD)
 487              		.loc 1 459 10 is_stmt 1 view .LVU192
 488              		.loc 1 459 12 is_stmt 0 view .LVU193
 489 038c 40F2D233 		movw	r3, #978
 490 0390 9842     		cmp	r0, r3
 491 0392 00F23E81 		bhi	.L98
 460:Core/Src/temp.c ****     {
 461:Core/Src/temp.c ****         Compensation_val = 84;       
 462:Core/Src/temp.c ****     }    
 463:Core/Src/temp.c ****     else if(temp_volt>TEMP_ZONE97_THRESHOLD)
 492              		.loc 1 463 10 is_stmt 1 view .LVU194
 493              		.loc 1 463 12 is_stmt 0 view .LVU195
 494 0396 40F2C533 		movw	r3, #965
 495 039a 9842     		cmp	r0, r3
 496 039c 00F23B81 		bhi	.L99
 464:Core/Src/temp.c ****     {
 465:Core/Src/temp.c ****         Compensation_val = 85;       
 466:Core/Src/temp.c ****     }    
 467:Core/Src/temp.c ****     else if(temp_volt>TEMP_ZONE98_THRESHOLD)
 497              		.loc 1 467 10 is_stmt 1 view .LVU196
 498              		.loc 1 467 12 is_stmt 0 view .LVU197
 499 03a0 B0F56E7F 		cmp	r0, #952
 500 03a4 80F03981 		bcs	.L100
 468:Core/Src/temp.c ****     {
 469:Core/Src/temp.c ****         Compensation_val = 86;       
 470:Core/Src/temp.c ****     }    
ARM GAS  C:\Users\jisu8\AppData\Local\Temp\ccM0cXAp.s 			page 18


 471:Core/Src/temp.c ****     else if(temp_volt>TEMP_ZONE99_THRESHOLD)
 501              		.loc 1 471 10 is_stmt 1 view .LVU198
 502              		.loc 1 471 12 is_stmt 0 view .LVU199
 503 03a8 40F2AA33 		movw	r3, #938
 504 03ac 9842     		cmp	r0, r3
 505 03ae 00F23681 		bhi	.L101
 472:Core/Src/temp.c ****     {
 473:Core/Src/temp.c ****         Compensation_val = 87;       
 474:Core/Src/temp.c ****     }    
 475:Core/Src/temp.c ****     else if(temp_volt>TEMP_ZONE100_THRESHOLD)
 506              		.loc 1 475 10 is_stmt 1 view .LVU200
 507              		.loc 1 475 12 is_stmt 0 view .LVU201
 508 03b2 40F29D33 		movw	r3, #925
 509 03b6 9842     		cmp	r0, r3
 510 03b8 00F23381 		bhi	.L102
 476:Core/Src/temp.c ****     {
 477:Core/Src/temp.c ****         Compensation_val = 88;       
 478:Core/Src/temp.c ****     }    
 479:Core/Src/temp.c ****     else if(temp_volt>TEMP_ZONE101_THRESHOLD)
 511              		.loc 1 479 10 is_stmt 1 view .LVU202
 512              		.loc 1 479 12 is_stmt 0 view .LVU203
 513 03bc B0F5647F 		cmp	r0, #912
 514 03c0 00F23181 		bhi	.L103
 480:Core/Src/temp.c ****     {
 481:Core/Src/temp.c ****         Compensation_val = 89;       
 482:Core/Src/temp.c ****     }    
 483:Core/Src/temp.c ****     else if(temp_volt>TEMP_ZONE102_THRESHOLD)
 515              		.loc 1 483 10 is_stmt 1 view .LVU204
 516              		.loc 1 483 12 is_stmt 0 view .LVU205
 517 03c4 40F28233 		movw	r3, #898
 518 03c8 9842     		cmp	r0, r3
 519 03ca 00F22E81 		bhi	.L104
 484:Core/Src/temp.c ****     {
 485:Core/Src/temp.c ****         Compensation_val = 90;       
 486:Core/Src/temp.c ****     }    
 487:Core/Src/temp.c ****     else if(temp_volt>TEMP_ZONE103_THRESHOLD)
 520              		.loc 1 487 10 is_stmt 1 view .LVU206
 521              		.loc 1 487 12 is_stmt 0 view .LVU207
 522 03ce 40F27533 		movw	r3, #885
 523 03d2 9842     		cmp	r0, r3
 524 03d4 00F22B81 		bhi	.L105
 488:Core/Src/temp.c ****     {
 489:Core/Src/temp.c ****         Compensation_val = 91;       
 490:Core/Src/temp.c ****     }    
 491:Core/Src/temp.c ****     else if(temp_volt>TEMP_ZONE104_THRESHOLD)
 525              		.loc 1 491 10 is_stmt 1 view .LVU208
 526              		.loc 1 491 12 is_stmt 0 view .LVU209
 527 03d8 B0F55A7F 		cmp	r0, #872
 528 03dc 00F22981 		bhi	.L106
 492:Core/Src/temp.c ****     {
 493:Core/Src/temp.c ****         Compensation_val = 92;       
 494:Core/Src/temp.c ****     }    
 495:Core/Src/temp.c ****     else if(temp_volt>TEMP_ZONE105_THRESHOLD)
 529              		.loc 1 495 10 is_stmt 1 view .LVU210
 530              		.loc 1 495 12 is_stmt 0 view .LVU211
 531 03e0 B0F5577F 		cmp	r0, #860
 532 03e4 80F02781 		bcs	.L107
ARM GAS  C:\Users\jisu8\AppData\Local\Temp\ccM0cXAp.s 			page 19


 496:Core/Src/temp.c ****     {
 497:Core/Src/temp.c ****         Compensation_val = 93;       
 498:Core/Src/temp.c ****     }    
 499:Core/Src/temp.c ****     else if(temp_volt>TEMP_ZONE106_THRESHOLD)
 533              		.loc 1 499 10 is_stmt 1 view .LVU212
 534              		.loc 1 499 12 is_stmt 0 view .LVU213
 535 03e8 40F24D33 		movw	r3, #845
 536 03ec 9842     		cmp	r0, r3
 537 03ee 00F22481 		bhi	.L108
 500:Core/Src/temp.c ****     {
 501:Core/Src/temp.c ****         Compensation_val = 94;       
 502:Core/Src/temp.c ****     }    
 503:Core/Src/temp.c ****     else if(temp_volt>TEMP_ZONE107_THRESHOLD)
 538              		.loc 1 503 10 is_stmt 1 view .LVU214
 539              		.loc 1 503 12 is_stmt 0 view .LVU215
 540 03f2 B0F5507F 		cmp	r0, #832
 541 03f6 00F22281 		bhi	.L109
 504:Core/Src/temp.c ****     {
 505:Core/Src/temp.c ****         Compensation_val = 95;       
 506:Core/Src/temp.c ****     }    
 507:Core/Src/temp.c ****     else if(temp_volt>TEMP_ZONE108_THRESHOLD)
 542              		.loc 1 507 10 is_stmt 1 view .LVU216
 543              		.loc 1 507 12 is_stmt 0 view .LVU217
 544 03fa B0F54D7F 		cmp	r0, #820
 545 03fe 80F02081 		bcs	.L110
 508:Core/Src/temp.c ****     {
 509:Core/Src/temp.c ****         Compensation_val = 96;       
 510:Core/Src/temp.c ****     }    
 511:Core/Src/temp.c ****     else if(temp_volt>TEMP_ZONE109_THRESHOLD)
 546              		.loc 1 511 10 is_stmt 1 view .LVU218
 547              		.loc 1 511 12 is_stmt 0 view .LVU219
 548 0402 40F22633 		movw	r3, #806
 549 0406 9842     		cmp	r0, r3
 550 0408 00F21D81 		bhi	.L111
 512:Core/Src/temp.c ****     {
 513:Core/Src/temp.c ****         Compensation_val = 97;       
 514:Core/Src/temp.c ****     }    
 515:Core/Src/temp.c ****     else if(temp_volt>TEMP_ZONE110_THRESHOLD)
 551              		.loc 1 515 10 is_stmt 1 view .LVU220
 552              		.loc 1 515 12 is_stmt 0 view .LVU221
 553 040c B0F5467F 		cmp	r0, #792
 554 0410 00F21B81 		bhi	.L112
 516:Core/Src/temp.c ****     {
 517:Core/Src/temp.c ****         Compensation_val = 98;       
 518:Core/Src/temp.c ****     }    
 519:Core/Src/temp.c ****     else if(temp_volt>TEMP_ZONE111_THRESHOLD)
 555              		.loc 1 519 10 is_stmt 1 view .LVU222
 556              		.loc 1 519 12 is_stmt 0 view .LVU223
 557 0414 B0F5437F 		cmp	r0, #780
 558 0418 80F01981 		bcs	.L113
 520:Core/Src/temp.c ****     {
 521:Core/Src/temp.c ****         Compensation_val = 99;       
 522:Core/Src/temp.c ****     }    
 523:Core/Src/temp.c ****     else if(temp_volt>TEMP_ZONE112_THRESHOLD)
 559              		.loc 1 523 10 is_stmt 1 view .LVU224
 560              		.loc 1 523 12 is_stmt 0 view .LVU225
 561 041c 40F2FE23 		movw	r3, #766
ARM GAS  C:\Users\jisu8\AppData\Local\Temp\ccM0cXAp.s 			page 20


 562 0420 9842     		cmp	r0, r3
 563 0422 00F21681 		bhi	.L114
 524:Core/Src/temp.c ****     {
 525:Core/Src/temp.c ****         Compensation_val = 100;       
 526:Core/Src/temp.c ****     }    
 527:Core/Src/temp.c ****     else if(temp_volt>TEMP_ZONE113_THRESHOLD)
 564              		.loc 1 527 10 is_stmt 1 view .LVU226
 565              		.loc 1 527 12 is_stmt 0 view .LVU227
 566 0426 40F2F123 		movw	r3, #753
 567 042a 9842     		cmp	r0, r3
 568 042c 00F21381 		bhi	.L115
 528:Core/Src/temp.c ****     {
 529:Core/Src/temp.c ****         Compensation_val = 101;       
 530:Core/Src/temp.c ****     }    
 531:Core/Src/temp.c ****     else if(temp_volt>TEMP_ZONE114_THRESHOLD)
 569              		.loc 1 531 10 is_stmt 1 view .LVU228
 570              		.loc 1 531 12 is_stmt 0 view .LVU229
 571 0430 B0F5397F 		cmp	r0, #740
 572 0434 80F01181 		bcs	.L116
 532:Core/Src/temp.c ****     {
 533:Core/Src/temp.c ****         Compensation_val = 102;       
 534:Core/Src/temp.c ****     }    
 535:Core/Src/temp.c ****     else if(temp_volt>TEMP_ZONE115_THRESHOLD)
 573              		.loc 1 535 10 is_stmt 1 view .LVU230
 574              		.loc 1 535 12 is_stmt 0 view .LVU231
 575 0438 40F2D623 		movw	r3, #726
 576 043c 9842     		cmp	r0, r3
 577 043e 00F20E81 		bhi	.L117
 536:Core/Src/temp.c ****     {
 537:Core/Src/temp.c ****         Compensation_val = 103;       
 538:Core/Src/temp.c ****     }    
 539:Core/Src/temp.c ****     else if(temp_volt>TEMP_ZONE116_THRESHOLD)
 578              		.loc 1 539 10 is_stmt 1 view .LVU232
 579              		.loc 1 539 12 is_stmt 0 view .LVU233
 580 0442 40F2C923 		movw	r3, #713
 581 0446 9842     		cmp	r0, r3
 582 0448 00F20B81 		bhi	.L118
 540:Core/Src/temp.c ****     {
 541:Core/Src/temp.c ****         Compensation_val = 104;       
 542:Core/Src/temp.c ****     }    
 543:Core/Src/temp.c ****     else if(temp_volt>TEMP_ZONE117_THRESHOLD)
 583              		.loc 1 543 10 is_stmt 1 view .LVU234
 584              		.loc 1 543 12 is_stmt 0 view .LVU235
 585 044c B0F52F7F 		cmp	r0, #700
 586 0450 00F20981 		bhi	.L119
 544:Core/Src/temp.c ****     {
 545:Core/Src/temp.c ****         Compensation_val = 105;       
 546:Core/Src/temp.c ****     }    
 547:Core/Src/temp.c ****     else if(temp_volt>TEMP_ZONE118_THRESHOLD)
 587              		.loc 1 547 10 is_stmt 1 view .LVU236
 588              		.loc 1 547 12 is_stmt 0 view .LVU237
 589 0454 40F2AE23 		movw	r3, #686
 590 0458 9842     		cmp	r0, r3
 591 045a 00F20681 		bhi	.L120
 548:Core/Src/temp.c ****     {
 549:Core/Src/temp.c ****         Compensation_val = 106;       
 550:Core/Src/temp.c ****     }    
ARM GAS  C:\Users\jisu8\AppData\Local\Temp\ccM0cXAp.s 			page 21


 551:Core/Src/temp.c ****     else if(temp_volt>TEMP_ZONE119_THRESHOLD)
 592              		.loc 1 551 10 is_stmt 1 view .LVU238
 593              		.loc 1 551 12 is_stmt 0 view .LVU239
 594 045e 40F2A123 		movw	r3, #673
 595 0462 9842     		cmp	r0, r3
 596 0464 00F20381 		bhi	.L121
 552:Core/Src/temp.c ****     {
 553:Core/Src/temp.c ****         Compensation_val = 107;       
 554:Core/Src/temp.c ****     }    
 555:Core/Src/temp.c ****     else if(temp_volt>TEMP_ZONE120_THRESHOLD)
 597              		.loc 1 555 10 is_stmt 1 view .LVU240
 598              		.loc 1 555 12 is_stmt 0 view .LVU241
 599 0468 B0F5257F 		cmp	r0, #660
 600 046c 00F20181 		bhi	.L122
 556:Core/Src/temp.c ****     {
 557:Core/Src/temp.c ****         Compensation_val = 108;       
 558:Core/Src/temp.c ****     }    
 559:Core/Src/temp.c ****     else if(temp_volt>TEMP_ZONE121_THRESHOLD)
 601              		.loc 1 559 10 is_stmt 1 view .LVU242
 602              		.loc 1 559 12 is_stmt 0 view .LVU243
 603 0470 B0F5227F 		cmp	r0, #648
 604 0474 C0F0FF80 		bcc	.L123
 560:Core/Src/temp.c ****     {
 561:Core/Src/temp.c ****         Compensation_val = 109;       
 605              		.loc 1 561 26 view .LVU244
 606 0478 6D23     		movs	r3, #109
 607 047a 01E0     		b	.L2
 608              	.L3:
  81:Core/Src/temp.c ****     }
 609              		.loc 1 81 26 view .LVU245
 610 047c 6FF00A03 		mvn	r3, #10
 611              	.L2:
 612              	.LVL1:
 562:Core/Src/temp.c ****     }
 563:Core/Src/temp.c ****     else
 564:Core/Src/temp.c ****     {
 565:Core/Src/temp.c ****         Compensation_val = 110;    
 566:Core/Src/temp.c ****     }
 567:Core/Src/temp.c **** 
 568:Core/Src/temp.c ****     Temp_Adc_TP = Compensation_val;
 613              		.loc 1 568 5 is_stmt 1 view .LVU246
 614              		.loc 1 568 17 is_stmt 0 view .LVU247
 615 0480 7E4A     		ldr	r2, .L124
 616 0482 1380     		strh	r3, [r2]	@ movhi
 569:Core/Src/temp.c ****     
 570:Core/Src/temp.c **** }
 617              		.loc 1 570 1 view .LVU248
 618 0484 7047     		bx	lr
 619              	.LVL2:
 620              	.L4:
  85:Core/Src/temp.c ****     }
 621              		.loc 1 85 26 view .LVU249
 622 0486 6FF00903 		mvn	r3, #9
 623 048a F9E7     		b	.L2
 624              	.L5:
  89:Core/Src/temp.c ****     }    
 625              		.loc 1 89 26 view .LVU250
ARM GAS  C:\Users\jisu8\AppData\Local\Temp\ccM0cXAp.s 			page 22


 626 048c 6FF00803 		mvn	r3, #8
 627 0490 F6E7     		b	.L2
 628              	.L6:
  93:Core/Src/temp.c ****     }    
 629              		.loc 1 93 26 view .LVU251
 630 0492 6FF00703 		mvn	r3, #7
 631 0496 F3E7     		b	.L2
 632              	.L7:
  97:Core/Src/temp.c ****     }    
 633              		.loc 1 97 26 view .LVU252
 634 0498 6FF00603 		mvn	r3, #6
 635 049c F0E7     		b	.L2
 636              	.L8:
 101:Core/Src/temp.c ****     }    
 637              		.loc 1 101 26 view .LVU253
 638 049e 6FF00503 		mvn	r3, #5
 639 04a2 EDE7     		b	.L2
 640              	.L9:
 105:Core/Src/temp.c ****     }    
 641              		.loc 1 105 26 view .LVU254
 642 04a4 6FF00403 		mvn	r3, #4
 643 04a8 EAE7     		b	.L2
 644              	.L10:
 109:Core/Src/temp.c ****     }    
 645              		.loc 1 109 26 view .LVU255
 646 04aa 6FF00303 		mvn	r3, #3
 647 04ae E7E7     		b	.L2
 648              	.L11:
 113:Core/Src/temp.c ****     }    
 649              		.loc 1 113 26 view .LVU256
 650 04b0 6FF00203 		mvn	r3, #2
 651 04b4 E4E7     		b	.L2
 652              	.L12:
 117:Core/Src/temp.c ****     }    
 653              		.loc 1 117 26 view .LVU257
 654 04b6 6FF00103 		mvn	r3, #1
 655 04ba E1E7     		b	.L2
 656              	.L13:
 121:Core/Src/temp.c ****     }    
 657              		.loc 1 121 26 view .LVU258
 658 04bc 4FF0FF33 		mov	r3, #-1
 659 04c0 DEE7     		b	.L2
 660              	.L14:
 125:Core/Src/temp.c ****     }    
 661              		.loc 1 125 26 view .LVU259
 662 04c2 0023     		movs	r3, #0
 663 04c4 DCE7     		b	.L2
 664              	.L15:
 129:Core/Src/temp.c ****     }    
 665              		.loc 1 129 26 view .LVU260
 666 04c6 0123     		movs	r3, #1
 667 04c8 DAE7     		b	.L2
 668              	.L16:
 133:Core/Src/temp.c ****     }    
 669              		.loc 1 133 26 view .LVU261
 670 04ca 0223     		movs	r3, #2
 671 04cc D8E7     		b	.L2
ARM GAS  C:\Users\jisu8\AppData\Local\Temp\ccM0cXAp.s 			page 23


 672              	.L17:
 137:Core/Src/temp.c ****     }    
 673              		.loc 1 137 26 view .LVU262
 674 04ce 0323     		movs	r3, #3
 675 04d0 D6E7     		b	.L2
 676              	.L18:
 141:Core/Src/temp.c ****     }    
 677              		.loc 1 141 26 view .LVU263
 678 04d2 0423     		movs	r3, #4
 679 04d4 D4E7     		b	.L2
 680              	.L19:
 145:Core/Src/temp.c ****     }    
 681              		.loc 1 145 26 view .LVU264
 682 04d6 0523     		movs	r3, #5
 683 04d8 D2E7     		b	.L2
 684              	.L20:
 149:Core/Src/temp.c ****     }    
 685              		.loc 1 149 26 view .LVU265
 686 04da 0623     		movs	r3, #6
 687 04dc D0E7     		b	.L2
 688              	.L21:
 153:Core/Src/temp.c ****     }    
 689              		.loc 1 153 26 view .LVU266
 690 04de 0723     		movs	r3, #7
 691 04e0 CEE7     		b	.L2
 692              	.L22:
 157:Core/Src/temp.c ****     }    
 693              		.loc 1 157 26 view .LVU267
 694 04e2 0823     		movs	r3, #8
 695 04e4 CCE7     		b	.L2
 696              	.L23:
 161:Core/Src/temp.c ****     }    
 697              		.loc 1 161 26 view .LVU268
 698 04e6 0923     		movs	r3, #9
 699 04e8 CAE7     		b	.L2
 700              	.L24:
 165:Core/Src/temp.c ****     }    
 701              		.loc 1 165 26 view .LVU269
 702 04ea 0A23     		movs	r3, #10
 703 04ec C8E7     		b	.L2
 704              	.L25:
 169:Core/Src/temp.c ****     }    
 705              		.loc 1 169 26 view .LVU270
 706 04ee 0B23     		movs	r3, #11
 707 04f0 C6E7     		b	.L2
 708              	.L26:
 173:Core/Src/temp.c ****     }    
 709              		.loc 1 173 26 view .LVU271
 710 04f2 0C23     		movs	r3, #12
 711 04f4 C4E7     		b	.L2
 712              	.L27:
 177:Core/Src/temp.c ****     }    
 713              		.loc 1 177 26 view .LVU272
 714 04f6 0D23     		movs	r3, #13
 715 04f8 C2E7     		b	.L2
 716              	.L28:
 181:Core/Src/temp.c ****     }    
ARM GAS  C:\Users\jisu8\AppData\Local\Temp\ccM0cXAp.s 			page 24


 717              		.loc 1 181 26 view .LVU273
 718 04fa 0E23     		movs	r3, #14
 719 04fc C0E7     		b	.L2
 720              	.L29:
 185:Core/Src/temp.c ****     }    
 721              		.loc 1 185 26 view .LVU274
 722 04fe 0F23     		movs	r3, #15
 723 0500 BEE7     		b	.L2
 724              	.L30:
 189:Core/Src/temp.c ****     }    
 725              		.loc 1 189 26 view .LVU275
 726 0502 1023     		movs	r3, #16
 727 0504 BCE7     		b	.L2
 728              	.L31:
 193:Core/Src/temp.c ****     }    
 729              		.loc 1 193 26 view .LVU276
 730 0506 1123     		movs	r3, #17
 731 0508 BAE7     		b	.L2
 732              	.L32:
 197:Core/Src/temp.c ****     }    
 733              		.loc 1 197 26 view .LVU277
 734 050a 1223     		movs	r3, #18
 735 050c B8E7     		b	.L2
 736              	.L33:
 201:Core/Src/temp.c ****     }    
 737              		.loc 1 201 26 view .LVU278
 738 050e 1323     		movs	r3, #19
 739 0510 B6E7     		b	.L2
 740              	.L34:
 205:Core/Src/temp.c ****     }    
 741              		.loc 1 205 26 view .LVU279
 742 0512 1423     		movs	r3, #20
 743 0514 B4E7     		b	.L2
 744              	.L35:
 209:Core/Src/temp.c ****     }    
 745              		.loc 1 209 26 view .LVU280
 746 0516 1523     		movs	r3, #21
 747 0518 B2E7     		b	.L2
 748              	.L36:
 213:Core/Src/temp.c ****     }    
 749              		.loc 1 213 26 view .LVU281
 750 051a 1623     		movs	r3, #22
 751 051c B0E7     		b	.L2
 752              	.L37:
 217:Core/Src/temp.c ****     }    
 753              		.loc 1 217 26 view .LVU282
 754 051e 1723     		movs	r3, #23
 755 0520 AEE7     		b	.L2
 756              	.L38:
 221:Core/Src/temp.c ****     }    
 757              		.loc 1 221 26 view .LVU283
 758 0522 1823     		movs	r3, #24
 759 0524 ACE7     		b	.L2
 760              	.L39:
 225:Core/Src/temp.c ****     }    
 761              		.loc 1 225 26 view .LVU284
 762 0526 1923     		movs	r3, #25
ARM GAS  C:\Users\jisu8\AppData\Local\Temp\ccM0cXAp.s 			page 25


 763 0528 AAE7     		b	.L2
 764              	.L40:
 229:Core/Src/temp.c ****     }    
 765              		.loc 1 229 26 view .LVU285
 766 052a 1A23     		movs	r3, #26
 767 052c A8E7     		b	.L2
 768              	.L41:
 233:Core/Src/temp.c ****     }    
 769              		.loc 1 233 26 view .LVU286
 770 052e 1B23     		movs	r3, #27
 771 0530 A6E7     		b	.L2
 772              	.L42:
 237:Core/Src/temp.c ****     }    
 773              		.loc 1 237 26 view .LVU287
 774 0532 1C23     		movs	r3, #28
 775 0534 A4E7     		b	.L2
 776              	.L43:
 241:Core/Src/temp.c ****     }    
 777              		.loc 1 241 26 view .LVU288
 778 0536 1D23     		movs	r3, #29
 779 0538 A2E7     		b	.L2
 780              	.L44:
 245:Core/Src/temp.c ****     }    
 781              		.loc 1 245 26 view .LVU289
 782 053a 1E23     		movs	r3, #30
 783 053c A0E7     		b	.L2
 784              	.L45:
 249:Core/Src/temp.c ****     }    
 785              		.loc 1 249 26 view .LVU290
 786 053e 1F23     		movs	r3, #31
 787 0540 9EE7     		b	.L2
 788              	.L46:
 253:Core/Src/temp.c ****     }    
 789              		.loc 1 253 26 view .LVU291
 790 0542 2023     		movs	r3, #32
 791 0544 9CE7     		b	.L2
 792              	.L47:
 257:Core/Src/temp.c ****     }    
 793              		.loc 1 257 26 view .LVU292
 794 0546 2123     		movs	r3, #33
 795 0548 9AE7     		b	.L2
 796              	.L48:
 261:Core/Src/temp.c ****     }    
 797              		.loc 1 261 26 view .LVU293
 798 054a 2223     		movs	r3, #34
 799 054c 98E7     		b	.L2
 800              	.L49:
 265:Core/Src/temp.c ****     }    
 801              		.loc 1 265 26 view .LVU294
 802 054e 2323     		movs	r3, #35
 803 0550 96E7     		b	.L2
 804              	.L50:
 269:Core/Src/temp.c ****     }    
 805              		.loc 1 269 26 view .LVU295
 806 0552 2423     		movs	r3, #36
 807 0554 94E7     		b	.L2
 808              	.L51:
ARM GAS  C:\Users\jisu8\AppData\Local\Temp\ccM0cXAp.s 			page 26


 273:Core/Src/temp.c ****     }    
 809              		.loc 1 273 26 view .LVU296
 810 0556 2523     		movs	r3, #37
 811 0558 92E7     		b	.L2
 812              	.L52:
 277:Core/Src/temp.c ****     }    
 813              		.loc 1 277 26 view .LVU297
 814 055a 2623     		movs	r3, #38
 815 055c 90E7     		b	.L2
 816              	.L53:
 281:Core/Src/temp.c ****     }    
 817              		.loc 1 281 26 view .LVU298
 818 055e 2723     		movs	r3, #39
 819 0560 8EE7     		b	.L2
 820              	.L54:
 285:Core/Src/temp.c ****     }    
 821              		.loc 1 285 26 view .LVU299
 822 0562 2823     		movs	r3, #40
 823 0564 8CE7     		b	.L2
 824              	.L55:
 289:Core/Src/temp.c ****     }    
 825              		.loc 1 289 26 view .LVU300
 826 0566 2923     		movs	r3, #41
 827 0568 8AE7     		b	.L2
 828              	.L56:
 293:Core/Src/temp.c ****     }    
 829              		.loc 1 293 26 view .LVU301
 830 056a 2A23     		movs	r3, #42
 831 056c 88E7     		b	.L2
 832              	.L57:
 297:Core/Src/temp.c ****     }    
 833              		.loc 1 297 26 view .LVU302
 834 056e 2B23     		movs	r3, #43
 835 0570 86E7     		b	.L2
 836              	.L58:
 301:Core/Src/temp.c ****     }    
 837              		.loc 1 301 26 view .LVU303
 838 0572 2C23     		movs	r3, #44
 839 0574 84E7     		b	.L2
 840              	.L59:
 305:Core/Src/temp.c ****     }    
 841              		.loc 1 305 26 view .LVU304
 842 0576 2D23     		movs	r3, #45
 843 0578 82E7     		b	.L2
 844              	.L60:
 309:Core/Src/temp.c ****     }    
 845              		.loc 1 309 26 view .LVU305
 846 057a 2E23     		movs	r3, #46
 847 057c 80E7     		b	.L2
 848              	.L61:
 313:Core/Src/temp.c ****     }    
 849              		.loc 1 313 26 view .LVU306
 850 057e 2F23     		movs	r3, #47
 851 0580 7EE7     		b	.L2
 852              	.L62:
 317:Core/Src/temp.c ****     }    
 853              		.loc 1 317 26 view .LVU307
ARM GAS  C:\Users\jisu8\AppData\Local\Temp\ccM0cXAp.s 			page 27


 854 0582 3023     		movs	r3, #48
 855 0584 7CE7     		b	.L2
 856              	.L63:
 321:Core/Src/temp.c ****     }    
 857              		.loc 1 321 26 view .LVU308
 858 0586 3123     		movs	r3, #49
 859 0588 7AE7     		b	.L2
 860              	.L64:
 325:Core/Src/temp.c ****     }    
 861              		.loc 1 325 26 view .LVU309
 862 058a 3223     		movs	r3, #50
 863 058c 78E7     		b	.L2
 864              	.L65:
 329:Core/Src/temp.c ****     }    
 865              		.loc 1 329 26 view .LVU310
 866 058e 3323     		movs	r3, #51
 867 0590 76E7     		b	.L2
 868              	.L66:
 333:Core/Src/temp.c ****     }    
 869              		.loc 1 333 26 view .LVU311
 870 0592 3423     		movs	r3, #52
 871 0594 74E7     		b	.L2
 872              	.L67:
 337:Core/Src/temp.c ****     }    
 873              		.loc 1 337 26 view .LVU312
 874 0596 3523     		movs	r3, #53
 875 0598 72E7     		b	.L2
 876              	.L68:
 341:Core/Src/temp.c ****     }    
 877              		.loc 1 341 26 view .LVU313
 878 059a 3623     		movs	r3, #54
 879 059c 70E7     		b	.L2
 880              	.L69:
 345:Core/Src/temp.c ****     }    
 881              		.loc 1 345 26 view .LVU314
 882 059e 3723     		movs	r3, #55
 883 05a0 6EE7     		b	.L2
 884              	.L70:
 349:Core/Src/temp.c ****     }    
 885              		.loc 1 349 26 view .LVU315
 886 05a2 3823     		movs	r3, #56
 887 05a4 6CE7     		b	.L2
 888              	.L71:
 353:Core/Src/temp.c ****     }    
 889              		.loc 1 353 26 view .LVU316
 890 05a6 3923     		movs	r3, #57
 891 05a8 6AE7     		b	.L2
 892              	.L72:
 357:Core/Src/temp.c ****     }    
 893              		.loc 1 357 26 view .LVU317
 894 05aa 3A23     		movs	r3, #58
 895 05ac 68E7     		b	.L2
 896              	.L73:
 361:Core/Src/temp.c ****     }    
 897              		.loc 1 361 26 view .LVU318
 898 05ae 3B23     		movs	r3, #59
 899 05b0 66E7     		b	.L2
ARM GAS  C:\Users\jisu8\AppData\Local\Temp\ccM0cXAp.s 			page 28


 900              	.L74:
 365:Core/Src/temp.c ****     }    
 901              		.loc 1 365 26 view .LVU319
 902 05b2 3C23     		movs	r3, #60
 903 05b4 64E7     		b	.L2
 904              	.L75:
 369:Core/Src/temp.c ****     }    
 905              		.loc 1 369 26 view .LVU320
 906 05b6 3D23     		movs	r3, #61
 907 05b8 62E7     		b	.L2
 908              	.L76:
 373:Core/Src/temp.c ****     }    
 909              		.loc 1 373 26 view .LVU321
 910 05ba 3E23     		movs	r3, #62
 911 05bc 60E7     		b	.L2
 912              	.L77:
 377:Core/Src/temp.c ****     }    
 913              		.loc 1 377 26 view .LVU322
 914 05be 3F23     		movs	r3, #63
 915 05c0 5EE7     		b	.L2
 916              	.L78:
 381:Core/Src/temp.c ****     }    
 917              		.loc 1 381 26 view .LVU323
 918 05c2 4023     		movs	r3, #64
 919 05c4 5CE7     		b	.L2
 920              	.L79:
 385:Core/Src/temp.c ****     }    
 921              		.loc 1 385 26 view .LVU324
 922 05c6 4123     		movs	r3, #65
 923 05c8 5AE7     		b	.L2
 924              	.L80:
 389:Core/Src/temp.c ****     }    
 925              		.loc 1 389 26 view .LVU325
 926 05ca 4223     		movs	r3, #66
 927 05cc 58E7     		b	.L2
 928              	.L81:
 393:Core/Src/temp.c ****     }    
 929              		.loc 1 393 26 view .LVU326
 930 05ce 4323     		movs	r3, #67
 931 05d0 56E7     		b	.L2
 932              	.L82:
 397:Core/Src/temp.c ****     }    
 933              		.loc 1 397 26 view .LVU327
 934 05d2 4423     		movs	r3, #68
 935 05d4 54E7     		b	.L2
 936              	.L83:
 401:Core/Src/temp.c ****     }    
 937              		.loc 1 401 26 view .LVU328
 938 05d6 4523     		movs	r3, #69
 939 05d8 52E7     		b	.L2
 940              	.L84:
 405:Core/Src/temp.c ****     }    
 941              		.loc 1 405 26 view .LVU329
 942 05da 4623     		movs	r3, #70
 943 05dc 50E7     		b	.L2
 944              	.L85:
 409:Core/Src/temp.c ****     }    
ARM GAS  C:\Users\jisu8\AppData\Local\Temp\ccM0cXAp.s 			page 29


 945              		.loc 1 409 26 view .LVU330
 946 05de 4723     		movs	r3, #71
 947 05e0 4EE7     		b	.L2
 948              	.L86:
 413:Core/Src/temp.c ****     }    
 949              		.loc 1 413 26 view .LVU331
 950 05e2 4823     		movs	r3, #72
 951 05e4 4CE7     		b	.L2
 952              	.L87:
 417:Core/Src/temp.c ****     }    
 953              		.loc 1 417 26 view .LVU332
 954 05e6 4923     		movs	r3, #73
 955 05e8 4AE7     		b	.L2
 956              	.L88:
 421:Core/Src/temp.c ****     }    
 957              		.loc 1 421 26 view .LVU333
 958 05ea 4A23     		movs	r3, #74
 959 05ec 48E7     		b	.L2
 960              	.L89:
 425:Core/Src/temp.c ****     }    
 961              		.loc 1 425 26 view .LVU334
 962 05ee 4B23     		movs	r3, #75
 963 05f0 46E7     		b	.L2
 964              	.L90:
 429:Core/Src/temp.c ****     }    
 965              		.loc 1 429 26 view .LVU335
 966 05f2 4C23     		movs	r3, #76
 967 05f4 44E7     		b	.L2
 968              	.L91:
 433:Core/Src/temp.c ****     }    
 969              		.loc 1 433 26 view .LVU336
 970 05f6 4D23     		movs	r3, #77
 971 05f8 42E7     		b	.L2
 972              	.L92:
 437:Core/Src/temp.c ****     }    
 973              		.loc 1 437 26 view .LVU337
 974 05fa 4E23     		movs	r3, #78
 975 05fc 40E7     		b	.L2
 976              	.L93:
 441:Core/Src/temp.c ****     }    
 977              		.loc 1 441 26 view .LVU338
 978 05fe 4F23     		movs	r3, #79
 979 0600 3EE7     		b	.L2
 980              	.L94:
 445:Core/Src/temp.c ****     }    
 981              		.loc 1 445 26 view .LVU339
 982 0602 5023     		movs	r3, #80
 983 0604 3CE7     		b	.L2
 984              	.L95:
 449:Core/Src/temp.c ****     }    
 985              		.loc 1 449 26 view .LVU340
 986 0606 5123     		movs	r3, #81
 987 0608 3AE7     		b	.L2
 988              	.L96:
 453:Core/Src/temp.c ****     }    
 989              		.loc 1 453 26 view .LVU341
 990 060a 5223     		movs	r3, #82
ARM GAS  C:\Users\jisu8\AppData\Local\Temp\ccM0cXAp.s 			page 30


 991 060c 38E7     		b	.L2
 992              	.L97:
 457:Core/Src/temp.c ****     }    
 993              		.loc 1 457 26 view .LVU342
 994 060e 5323     		movs	r3, #83
 995 0610 36E7     		b	.L2
 996              	.L98:
 461:Core/Src/temp.c ****     }    
 997              		.loc 1 461 26 view .LVU343
 998 0612 5423     		movs	r3, #84
 999 0614 34E7     		b	.L2
 1000              	.L99:
 465:Core/Src/temp.c ****     }    
 1001              		.loc 1 465 26 view .LVU344
 1002 0616 5523     		movs	r3, #85
 1003 0618 32E7     		b	.L2
 1004              	.L100:
 469:Core/Src/temp.c ****     }    
 1005              		.loc 1 469 26 view .LVU345
 1006 061a 5623     		movs	r3, #86
 1007 061c 30E7     		b	.L2
 1008              	.L101:
 473:Core/Src/temp.c ****     }    
 1009              		.loc 1 473 26 view .LVU346
 1010 061e 5723     		movs	r3, #87
 1011 0620 2EE7     		b	.L2
 1012              	.L102:
 477:Core/Src/temp.c ****     }    
 1013              		.loc 1 477 26 view .LVU347
 1014 0622 5823     		movs	r3, #88
 1015 0624 2CE7     		b	.L2
 1016              	.L103:
 481:Core/Src/temp.c ****     }    
 1017              		.loc 1 481 26 view .LVU348
 1018 0626 5923     		movs	r3, #89
 1019 0628 2AE7     		b	.L2
 1020              	.L104:
 485:Core/Src/temp.c ****     }    
 1021              		.loc 1 485 26 view .LVU349
 1022 062a 5A23     		movs	r3, #90
 1023 062c 28E7     		b	.L2
 1024              	.L105:
 489:Core/Src/temp.c ****     }    
 1025              		.loc 1 489 26 view .LVU350
 1026 062e 5B23     		movs	r3, #91
 1027 0630 26E7     		b	.L2
 1028              	.L106:
 493:Core/Src/temp.c ****     }    
 1029              		.loc 1 493 26 view .LVU351
 1030 0632 5C23     		movs	r3, #92
 1031 0634 24E7     		b	.L2
 1032              	.L107:
 497:Core/Src/temp.c ****     }    
 1033              		.loc 1 497 26 view .LVU352
 1034 0636 5D23     		movs	r3, #93
 1035 0638 22E7     		b	.L2
 1036              	.L108:
ARM GAS  C:\Users\jisu8\AppData\Local\Temp\ccM0cXAp.s 			page 31


 501:Core/Src/temp.c ****     }    
 1037              		.loc 1 501 26 view .LVU353
 1038 063a 5E23     		movs	r3, #94
 1039 063c 20E7     		b	.L2
 1040              	.L109:
 505:Core/Src/temp.c ****     }    
 1041              		.loc 1 505 26 view .LVU354
 1042 063e 5F23     		movs	r3, #95
 1043 0640 1EE7     		b	.L2
 1044              	.L110:
 509:Core/Src/temp.c ****     }    
 1045              		.loc 1 509 26 view .LVU355
 1046 0642 6023     		movs	r3, #96
 1047 0644 1CE7     		b	.L2
 1048              	.L111:
 513:Core/Src/temp.c ****     }    
 1049              		.loc 1 513 26 view .LVU356
 1050 0646 6123     		movs	r3, #97
 1051 0648 1AE7     		b	.L2
 1052              	.L112:
 517:Core/Src/temp.c ****     }    
 1053              		.loc 1 517 26 view .LVU357
 1054 064a 6223     		movs	r3, #98
 1055 064c 18E7     		b	.L2
 1056              	.L113:
 521:Core/Src/temp.c ****     }    
 1057              		.loc 1 521 26 view .LVU358
 1058 064e 6323     		movs	r3, #99
 1059 0650 16E7     		b	.L2
 1060              	.L114:
 525:Core/Src/temp.c ****     }    
 1061              		.loc 1 525 26 view .LVU359
 1062 0652 6423     		movs	r3, #100
 1063 0654 14E7     		b	.L2
 1064              	.L115:
 529:Core/Src/temp.c ****     }    
 1065              		.loc 1 529 26 view .LVU360
 1066 0656 6523     		movs	r3, #101
 1067 0658 12E7     		b	.L2
 1068              	.L116:
 533:Core/Src/temp.c ****     }    
 1069              		.loc 1 533 26 view .LVU361
 1070 065a 6623     		movs	r3, #102
 1071 065c 10E7     		b	.L2
 1072              	.L117:
 537:Core/Src/temp.c ****     }    
 1073              		.loc 1 537 26 view .LVU362
 1074 065e 6723     		movs	r3, #103
 1075 0660 0EE7     		b	.L2
 1076              	.L118:
 541:Core/Src/temp.c ****     }    
 1077              		.loc 1 541 26 view .LVU363
 1078 0662 6823     		movs	r3, #104
 1079 0664 0CE7     		b	.L2
 1080              	.L119:
 545:Core/Src/temp.c ****     }    
 1081              		.loc 1 545 26 view .LVU364
ARM GAS  C:\Users\jisu8\AppData\Local\Temp\ccM0cXAp.s 			page 32


 1082 0666 6923     		movs	r3, #105
 1083 0668 0AE7     		b	.L2
 1084              	.L120:
 549:Core/Src/temp.c ****     }    
 1085              		.loc 1 549 26 view .LVU365
 1086 066a 6A23     		movs	r3, #106
 1087 066c 08E7     		b	.L2
 1088              	.L121:
 553:Core/Src/temp.c ****     }    
 1089              		.loc 1 553 26 view .LVU366
 1090 066e 6B23     		movs	r3, #107
 1091 0670 06E7     		b	.L2
 1092              	.L122:
 557:Core/Src/temp.c ****     }    
 1093              		.loc 1 557 26 view .LVU367
 1094 0672 6C23     		movs	r3, #108
 1095 0674 04E7     		b	.L2
 1096              	.L123:
 565:Core/Src/temp.c ****     }
 1097              		.loc 1 565 26 view .LVU368
 1098 0676 6E23     		movs	r3, #110
 1099 0678 02E7     		b	.L2
 1100              	.L125:
 1101 067a 00BF     		.align	2
 1102              	.L124:
 1103 067c 00000000 		.word	.LANCHOR0
 1104              		.cfi_endproc
 1105              	.LFE66:
 1107              		.global	__aeabi_ui2f
 1108              		.global	__aeabi_fmul
 1109              		.global	__aeabi_fdiv
 1110              		.global	__aeabi_f2uiz
 1111              		.global	__aeabi_fsub
 1112              		.global	__aeabi_fadd
 1113              		.global	__aeabi_f2iz
 1114              		.section	.text.Temp_Read,"ax",%progbits
 1115              		.align	1
 1116              		.global	Temp_Read
 1117              		.syntax unified
 1118              		.thumb
 1119              		.thumb_func
 1121              	Temp_Read:
 1122              	.LFB65:
  23:Core/Src/temp.c ****     HAL_ADC_Start(&TEMP_MODULE);
 1123              		.loc 1 23 1 is_stmt 1 view -0
 1124              		.cfi_startproc
 1125              		@ args = 0, pretend = 0, frame = 0
 1126              		@ frame_needed = 0, uses_anonymous_args = 0
 1127 0000 10B5     		push	{r4, lr}
 1128              	.LCFI0:
 1129              		.cfi_def_cfa_offset 8
 1130              		.cfi_offset 4, -8
 1131              		.cfi_offset 14, -4
  24:Core/Src/temp.c ****     if(HAL_OK == HAL_ADC_PollForConversion(&TEMP_MODULE,10))
 1132              		.loc 1 24 5 view .LVU370
 1133 0002 444C     		ldr	r4, .L138
 1134 0004 2046     		mov	r0, r4
ARM GAS  C:\Users\jisu8\AppData\Local\Temp\ccM0cXAp.s 			page 33


 1135 0006 FFF7FEFF 		bl	HAL_ADC_Start
 1136              	.LVL3:
  25:Core/Src/temp.c ****     {
 1137              		.loc 1 25 5 view .LVU371
  25:Core/Src/temp.c ****     {
 1138              		.loc 1 25 18 is_stmt 0 view .LVU372
 1139 000a 0A21     		movs	r1, #10
 1140 000c 2046     		mov	r0, r4
 1141 000e FFF7FEFF 		bl	HAL_ADC_PollForConversion
 1142              	.LVL4:
  25:Core/Src/temp.c ****     {
 1143              		.loc 1 25 7 view .LVU373
 1144 0012 B8B1     		cbz	r0, .L134
  32:Core/Src/temp.c ****     }
 1145              		.loc 1 32 9 is_stmt 1 view .LVU374
  32:Core/Src/temp.c ****     }
 1146              		.loc 1 32 28 is_stmt 0 view .LVU375
 1147 0014 404B     		ldr	r3, .L138+4
 1148 0016 0022     		movs	r2, #0
 1149 0018 1A70     		strb	r2, [r3]
 1150              	.L128:
  35:Core/Src/temp.c ****     if(HAL_OK == HAL_ADC_PollForConversion(&TEMP_MODULE,10))
 1151              		.loc 1 35 5 is_stmt 1 view .LVU376
 1152 001a 3E4C     		ldr	r4, .L138
 1153 001c 2046     		mov	r0, r4
 1154 001e FFF7FEFF 		bl	HAL_ADC_Start
 1155              	.LVL5:
  36:Core/Src/temp.c ****     {
 1156              		.loc 1 36 5 view .LVU377
  36:Core/Src/temp.c ****     {
 1157              		.loc 1 36 18 is_stmt 0 view .LVU378
 1158 0022 0A21     		movs	r1, #10
 1159 0024 2046     		mov	r0, r4
 1160 0026 FFF7FEFF 		bl	HAL_ADC_PollForConversion
 1161              	.LVL6:
  36:Core/Src/temp.c ****     {
 1162              		.loc 1 36 7 view .LVU379
 1163 002a A0B1     		cbz	r0, .L135
  43:Core/Src/temp.c ****     }
 1164              		.loc 1 43 9 is_stmt 1 view .LVU380
  43:Core/Src/temp.c ****     }
 1165              		.loc 1 43 29 is_stmt 0 view .LVU381
 1166 002c 3B4B     		ldr	r3, .L138+8
 1167 002e 0022     		movs	r2, #0
 1168 0030 1A70     		strb	r2, [r3]
 1169              	.L130:
  47:Core/Src/temp.c ****     {
 1170              		.loc 1 47 5 is_stmt 1 view .LVU382
  47:Core/Src/temp.c ****     {
 1171              		.loc 1 47 10 is_stmt 0 view .LVU383
 1172 0032 394B     		ldr	r3, .L138+4
 1173 0034 1B78     		ldrb	r3, [r3]	@ zero_extendqisi2
  47:Core/Src/temp.c ****     {
 1174              		.loc 1 47 7 view .LVU384
 1175 0036 012B     		cmp	r3, #1
 1176 0038 16D0     		beq	.L136
 1177              	.L131:
ARM GAS  C:\Users\jisu8\AppData\Local\Temp\ccM0cXAp.s 			page 34


  60:Core/Src/temp.c ****     {
 1178              		.loc 1 60 5 is_stmt 1 view .LVU385
  60:Core/Src/temp.c ****     {
 1179              		.loc 1 60 10 is_stmt 0 view .LVU386
 1180 003a 384B     		ldr	r3, .L138+8
 1181 003c 1B78     		ldrb	r3, [r3]	@ zero_extendqisi2
  60:Core/Src/temp.c ****     {
 1182              		.loc 1 60 7 view .LVU387
 1183 003e 012B     		cmp	r3, #1
 1184 0040 36D0     		beq	.L137
 1185              	.L126:
  74:Core/Src/temp.c **** 
 1186              		.loc 1 74 1 view .LVU388
 1187 0042 10BD     		pop	{r4, pc}
 1188              	.L134:
  27:Core/Src/temp.c ****         Temp_Adc_TP_Status = 1;
 1189              		.loc 1 27 9 is_stmt 1 view .LVU389
  27:Core/Src/temp.c ****         Temp_Adc_TP_Status = 1;
 1190              		.loc 1 27 27 is_stmt 0 view .LVU390
 1191 0044 2046     		mov	r0, r4
 1192 0046 FFF7FEFF 		bl	HAL_ADC_GetValue
 1193              	.LVL7:
  27:Core/Src/temp.c ****         Temp_Adc_TP_Status = 1;
 1194              		.loc 1 27 25 view .LVU391
 1195 004a 354B     		ldr	r3, .L138+12
 1196 004c 1880     		strh	r0, [r3]	@ movhi
  28:Core/Src/temp.c ****     }
 1197              		.loc 1 28 9 is_stmt 1 view .LVU392
  28:Core/Src/temp.c ****     }
 1198              		.loc 1 28 28 is_stmt 0 view .LVU393
 1199 004e 324B     		ldr	r3, .L138+4
 1200 0050 0122     		movs	r2, #1
 1201 0052 1A70     		strb	r2, [r3]
 1202 0054 E1E7     		b	.L128
 1203              	.L135:
  38:Core/Src/temp.c ****         Temp_Adc_CPU_Status = 1;
 1204              		.loc 1 38 9 is_stmt 1 view .LVU394
  38:Core/Src/temp.c ****         Temp_Adc_CPU_Status = 1;
 1205              		.loc 1 38 28 is_stmt 0 view .LVU395
 1206 0056 2046     		mov	r0, r4
 1207 0058 FFF7FEFF 		bl	HAL_ADC_GetValue
 1208              	.LVL8:
  38:Core/Src/temp.c ****         Temp_Adc_CPU_Status = 1;
 1209              		.loc 1 38 26 view .LVU396
 1210 005c 314B     		ldr	r3, .L138+16
 1211 005e 1880     		strh	r0, [r3]	@ movhi
  39:Core/Src/temp.c ****     }
 1212              		.loc 1 39 9 is_stmt 1 view .LVU397
  39:Core/Src/temp.c ****     }
 1213              		.loc 1 39 29 is_stmt 0 view .LVU398
 1214 0060 2E4B     		ldr	r3, .L138+8
 1215 0062 0122     		movs	r2, #1
 1216 0064 1A70     		strb	r2, [r3]
 1217 0066 E4E7     		b	.L130
 1218              	.L136:
  49:Core/Src/temp.c ****         Temp_Adc_TP_Sum += Temp_Adc_TP_Raw;
 1219              		.loc 1 49 9 is_stmt 1 view .LVU399
ARM GAS  C:\Users\jisu8\AppData\Local\Temp\ccM0cXAp.s 			page 35


  49:Core/Src/temp.c ****         Temp_Adc_TP_Sum += Temp_Adc_TP_Raw;
 1220              		.loc 1 49 26 is_stmt 0 view .LVU400
 1221 0068 2F4A     		ldr	r2, .L138+20
 1222 006a 1378     		ldrb	r3, [r2]	@ zero_extendqisi2
 1223 006c 0133     		adds	r3, r3, #1
 1224 006e DBB2     		uxtb	r3, r3
 1225 0070 1370     		strb	r3, [r2]
  50:Core/Src/temp.c ****         if(Temp_Avg_TP_Count>=10)
 1226              		.loc 1 50 9 is_stmt 1 view .LVU401
  50:Core/Src/temp.c ****         if(Temp_Avg_TP_Count>=10)
 1227              		.loc 1 50 25 is_stmt 0 view .LVU402
 1228 0072 2B4A     		ldr	r2, .L138+12
 1229 0074 1088     		ldrh	r0, [r2]
 1230 0076 2D4A     		ldr	r2, .L138+24
 1231 0078 1168     		ldr	r1, [r2]
 1232 007a 0844     		add	r0, r0, r1
 1233 007c 1060     		str	r0, [r2]
  51:Core/Src/temp.c ****         {
 1234              		.loc 1 51 9 is_stmt 1 view .LVU403
  51:Core/Src/temp.c ****         {
 1235              		.loc 1 51 11 is_stmt 0 view .LVU404
 1236 007e 092B     		cmp	r3, #9
 1237 0080 DBD9     		bls	.L131
  53:Core/Src/temp.c ****             Temperature_Compensation(Temp_Adc_TP_Volt);
 1238              		.loc 1 53 13 is_stmt 1 view .LVU405
  53:Core/Src/temp.c ****             Temperature_Compensation(Temp_Adc_TP_Volt);
 1239              		.loc 1 53 41 is_stmt 0 view .LVU406
 1240 0082 B0FBF3F0 		udiv	r0, r0, r3
 1241 0086 FFF7FEFF 		bl	__aeabi_ui2f
 1242              	.LVL9:
  53:Core/Src/temp.c ****             Temperature_Compensation(Temp_Adc_TP_Volt);
 1243              		.loc 1 53 85 view .LVU407
 1244 008a 2949     		ldr	r1, .L138+28
 1245 008c FFF7FEFF 		bl	__aeabi_fmul
 1246              	.LVL10:
  53:Core/Src/temp.c ****             Temperature_Compensation(Temp_Adc_TP_Volt);
 1247              		.loc 1 53 93 view .LVU408
 1248 0090 2849     		ldr	r1, .L138+32
 1249 0092 FFF7FEFF 		bl	__aeabi_fdiv
 1250              	.LVL11:
  53:Core/Src/temp.c ****             Temperature_Compensation(Temp_Adc_TP_Volt);
 1251              		.loc 1 53 32 view .LVU409
 1252 0096 FFF7FEFF 		bl	__aeabi_f2uiz
 1253              	.LVL12:
 1254 009a 80B2     		uxth	r0, r0
  53:Core/Src/temp.c ****             Temperature_Compensation(Temp_Adc_TP_Volt);
 1255              		.loc 1 53 30 view .LVU410
 1256 009c 264B     		ldr	r3, .L138+36
 1257 009e 1880     		strh	r0, [r3]	@ movhi
  54:Core/Src/temp.c ****             Temp_Avg_TP_Count = 0;
 1258              		.loc 1 54 13 is_stmt 1 view .LVU411
 1259 00a0 FFF7FEFF 		bl	Temperature_Compensation
 1260              	.LVL13:
  55:Core/Src/temp.c ****             Temp_Adc_TP_Sum = 0;
 1261              		.loc 1 55 13 view .LVU412
  55:Core/Src/temp.c ****             Temp_Adc_TP_Sum = 0;
 1262              		.loc 1 55 31 is_stmt 0 view .LVU413
ARM GAS  C:\Users\jisu8\AppData\Local\Temp\ccM0cXAp.s 			page 36


 1263 00a4 0023     		movs	r3, #0
 1264 00a6 204A     		ldr	r2, .L138+20
 1265 00a8 1370     		strb	r3, [r2]
  56:Core/Src/temp.c ****         }
 1266              		.loc 1 56 13 is_stmt 1 view .LVU414
  56:Core/Src/temp.c ****         }
 1267              		.loc 1 56 29 is_stmt 0 view .LVU415
 1268 00aa 204A     		ldr	r2, .L138+24
 1269 00ac 1360     		str	r3, [r2]
 1270 00ae C4E7     		b	.L131
 1271              	.L137:
  62:Core/Src/temp.c ****         Temp_Adc_CPU_Sum += Temp_Adc_CPU_Raw;
 1272              		.loc 1 62 9 is_stmt 1 view .LVU416
  62:Core/Src/temp.c ****         Temp_Adc_CPU_Sum += Temp_Adc_CPU_Raw;
 1273              		.loc 1 62 27 is_stmt 0 view .LVU417
 1274 00b0 224A     		ldr	r2, .L138+40
 1275 00b2 1378     		ldrb	r3, [r2]	@ zero_extendqisi2
 1276 00b4 0133     		adds	r3, r3, #1
 1277 00b6 DBB2     		uxtb	r3, r3
 1278 00b8 1370     		strb	r3, [r2]
  63:Core/Src/temp.c ****         if(Temp_Avg_CPU_Count>=10)
 1279              		.loc 1 63 9 is_stmt 1 view .LVU418
  63:Core/Src/temp.c ****         if(Temp_Avg_CPU_Count>=10)
 1280              		.loc 1 63 26 is_stmt 0 view .LVU419
 1281 00ba 1A4A     		ldr	r2, .L138+16
 1282 00bc 1088     		ldrh	r0, [r2]
 1283 00be 204A     		ldr	r2, .L138+44
 1284 00c0 1168     		ldr	r1, [r2]
 1285 00c2 0844     		add	r0, r0, r1
 1286 00c4 1060     		str	r0, [r2]
  64:Core/Src/temp.c ****         {
 1287              		.loc 1 64 9 is_stmt 1 view .LVU420
  64:Core/Src/temp.c ****         {
 1288              		.loc 1 64 11 is_stmt 0 view .LVU421
 1289 00c6 092B     		cmp	r3, #9
 1290 00c8 BBD9     		bls	.L126
  66:Core/Src/temp.c ****             Temp_Adc_CPU = (sint16)(((float)Temp_Adc_CPU_Volt - 760.0f) / 2.5f + 25.0f);
 1291              		.loc 1 66 13 is_stmt 1 view .LVU422
  66:Core/Src/temp.c ****             Temp_Adc_CPU = (sint16)(((float)Temp_Adc_CPU_Volt - 760.0f) / 2.5f + 25.0f);
 1292              		.loc 1 66 42 is_stmt 0 view .LVU423
 1293 00ca B0FBF3F0 		udiv	r0, r0, r3
 1294 00ce FFF7FEFF 		bl	__aeabi_ui2f
 1295              	.LVL14:
  66:Core/Src/temp.c ****             Temp_Adc_CPU = (sint16)(((float)Temp_Adc_CPU_Volt - 760.0f) / 2.5f + 25.0f);
 1296              		.loc 1 66 88 view .LVU424
 1297 00d2 1C49     		ldr	r1, .L138+48
 1298 00d4 FFF7FEFF 		bl	__aeabi_fmul
 1299              	.LVL15:
  66:Core/Src/temp.c ****             Temp_Adc_CPU = (sint16)(((float)Temp_Adc_CPU_Volt - 760.0f) / 2.5f + 25.0f);
 1300              		.loc 1 66 96 view .LVU425
 1301 00d8 1649     		ldr	r1, .L138+32
 1302 00da FFF7FEFF 		bl	__aeabi_fdiv
 1303              	.LVL16:
  66:Core/Src/temp.c ****             Temp_Adc_CPU = (sint16)(((float)Temp_Adc_CPU_Volt - 760.0f) / 2.5f + 25.0f);
 1304              		.loc 1 66 33 view .LVU426
 1305 00de FFF7FEFF 		bl	__aeabi_f2uiz
 1306              	.LVL17:
ARM GAS  C:\Users\jisu8\AppData\Local\Temp\ccM0cXAp.s 			page 37


 1307 00e2 80B2     		uxth	r0, r0
  66:Core/Src/temp.c ****             Temp_Adc_CPU = (sint16)(((float)Temp_Adc_CPU_Volt - 760.0f) / 2.5f + 25.0f);
 1308              		.loc 1 66 31 view .LVU427
 1309 00e4 184B     		ldr	r3, .L138+52
 1310 00e6 1880     		strh	r0, [r3]	@ movhi
  67:Core/Src/temp.c ****             Temp_Avg_CPU_Count = 0;
 1311              		.loc 1 67 13 is_stmt 1 view .LVU428
  67:Core/Src/temp.c ****             Temp_Avg_CPU_Count = 0;
 1312              		.loc 1 67 38 is_stmt 0 view .LVU429
 1313 00e8 FFF7FEFF 		bl	__aeabi_ui2f
 1314              	.LVL18:
  67:Core/Src/temp.c ****             Temp_Avg_CPU_Count = 0;
 1315              		.loc 1 67 63 view .LVU430
 1316 00ec 1749     		ldr	r1, .L138+56
 1317 00ee FFF7FEFF 		bl	__aeabi_fsub
 1318              	.LVL19:
  67:Core/Src/temp.c ****             Temp_Avg_CPU_Count = 0;
 1319              		.loc 1 67 73 view .LVU431
 1320 00f2 1749     		ldr	r1, .L138+60
 1321 00f4 FFF7FEFF 		bl	__aeabi_fdiv
 1322              	.LVL20:
  67:Core/Src/temp.c ****             Temp_Avg_CPU_Count = 0;
 1323              		.loc 1 67 80 view .LVU432
 1324 00f8 1649     		ldr	r1, .L138+64
 1325 00fa FFF7FEFF 		bl	__aeabi_fadd
 1326              	.LVL21:
  67:Core/Src/temp.c ****             Temp_Avg_CPU_Count = 0;
 1327              		.loc 1 67 28 view .LVU433
 1328 00fe FFF7FEFF 		bl	__aeabi_f2iz
 1329              	.LVL22:
  67:Core/Src/temp.c ****             Temp_Avg_CPU_Count = 0;
 1330              		.loc 1 67 26 view .LVU434
 1331 0102 154B     		ldr	r3, .L138+68
 1332 0104 1880     		strh	r0, [r3]	@ movhi
  68:Core/Src/temp.c ****             Temp_Adc_CPU_Sum = 0;
 1333              		.loc 1 68 13 is_stmt 1 view .LVU435
  68:Core/Src/temp.c ****             Temp_Adc_CPU_Sum = 0;
 1334              		.loc 1 68 32 is_stmt 0 view .LVU436
 1335 0106 0023     		movs	r3, #0
 1336 0108 0C4A     		ldr	r2, .L138+40
 1337 010a 1370     		strb	r3, [r2]
  69:Core/Src/temp.c ****         }
 1338              		.loc 1 69 13 is_stmt 1 view .LVU437
  69:Core/Src/temp.c ****         }
 1339              		.loc 1 69 30 is_stmt 0 view .LVU438
 1340 010c 0C4A     		ldr	r2, .L138+44
 1341 010e 1360     		str	r3, [r2]
  73:Core/Src/temp.c **** }
 1342              		.loc 1 73 5 is_stmt 1 view .LVU439
 1343 0110 97E7     		b	.L126
 1344              	.L139:
 1345 0112 00BF     		.align	2
 1346              	.L138:
 1347 0114 00000000 		.word	hadc1
 1348 0118 00000000 		.word	.LANCHOR2
 1349 011c 00000000 		.word	.LANCHOR4
 1350 0120 00000000 		.word	.LANCHOR1
ARM GAS  C:\Users\jisu8\AppData\Local\Temp\ccM0cXAp.s 			page 38


 1351 0124 00000000 		.word	.LANCHOR3
 1352 0128 00000000 		.word	.LANCHOR5
 1353 012c 00000000 		.word	.LANCHOR6
 1354 0130 00409C45 		.word	1167867904
 1355 0134 00F07F45 		.word	1166012416
 1356 0138 00000000 		.word	.LANCHOR7
 1357 013c 00000000 		.word	.LANCHOR8
 1358 0140 00000000 		.word	.LANCHOR9
 1359 0144 00404E45 		.word	1162756096
 1360 0148 00000000 		.word	.LANCHOR10
 1361 014c 00003E44 		.word	1144913920
 1362 0150 00002040 		.word	1075838976
 1363 0154 0000C841 		.word	1103626240
 1364 0158 00000000 		.word	.LANCHOR11
 1365              		.cfi_endproc
 1366              	.LFE65:
 1368              		.global	Temp_Adc_CPU
 1369              		.global	Temp_Adc_TP
 1370              		.global	Temp_Adc_CPU_Volt
 1371              		.global	Temp_Adc_TP_Volt
 1372              		.global	Temp_Adc_CPU_Sum
 1373              		.global	Temp_Adc_TP_Sum
 1374              		.global	Temp_Avg_CPU_Count
 1375              		.global	Temp_Avg_TP_Count
 1376              		.global	Temp_Adc_CPU_Status
 1377              		.global	Temp_Adc_TP_Status
 1378              		.global	Temp_Adc_CPU_Raw
 1379              		.global	Temp_Adc_TP_Raw
 1380              		.section	.bss.Temp_Adc_CPU,"aw",%nobits
 1381              		.align	1
 1382              		.set	.LANCHOR11,. + 0
 1385              	Temp_Adc_CPU:
 1386 0000 0000     		.space	2
 1387              		.section	.bss.Temp_Adc_CPU_Raw,"aw",%nobits
 1388              		.align	1
 1389              		.set	.LANCHOR3,. + 0
 1392              	Temp_Adc_CPU_Raw:
 1393 0000 0000     		.space	2
 1394              		.section	.bss.Temp_Adc_CPU_Status,"aw",%nobits
 1395              		.set	.LANCHOR4,. + 0
 1398              	Temp_Adc_CPU_Status:
 1399 0000 00       		.space	1
 1400              		.section	.bss.Temp_Adc_CPU_Sum,"aw",%nobits
 1401              		.align	2
 1402              		.set	.LANCHOR9,. + 0
 1405              	Temp_Adc_CPU_Sum:
 1406 0000 00000000 		.space	4
 1407              		.section	.bss.Temp_Adc_CPU_Volt,"aw",%nobits
 1408              		.align	1
 1409              		.set	.LANCHOR10,. + 0
 1412              	Temp_Adc_CPU_Volt:
 1413 0000 0000     		.space	2
 1414              		.section	.bss.Temp_Adc_TP,"aw",%nobits
 1415              		.align	1
 1416              		.set	.LANCHOR0,. + 0
 1419              	Temp_Adc_TP:
 1420 0000 0000     		.space	2
ARM GAS  C:\Users\jisu8\AppData\Local\Temp\ccM0cXAp.s 			page 39


 1421              		.section	.bss.Temp_Adc_TP_Raw,"aw",%nobits
 1422              		.align	1
 1423              		.set	.LANCHOR1,. + 0
 1426              	Temp_Adc_TP_Raw:
 1427 0000 0000     		.space	2
 1428              		.section	.bss.Temp_Adc_TP_Status,"aw",%nobits
 1429              		.set	.LANCHOR2,. + 0
 1432              	Temp_Adc_TP_Status:
 1433 0000 00       		.space	1
 1434              		.section	.bss.Temp_Adc_TP_Sum,"aw",%nobits
 1435              		.align	2
 1436              		.set	.LANCHOR6,. + 0
 1439              	Temp_Adc_TP_Sum:
 1440 0000 00000000 		.space	4
 1441              		.section	.bss.Temp_Adc_TP_Volt,"aw",%nobits
 1442              		.align	1
 1443              		.set	.LANCHOR7,. + 0
 1446              	Temp_Adc_TP_Volt:
 1447 0000 0000     		.space	2
 1448              		.section	.data.Temp_Avg_CPU_Count,"aw"
 1449              		.set	.LANCHOR8,. + 0
 1452              	Temp_Avg_CPU_Count:
 1453 0000 0A       		.byte	10
 1454              		.section	.data.Temp_Avg_TP_Count,"aw"
 1455              		.set	.LANCHOR5,. + 0
 1458              	Temp_Avg_TP_Count:
 1459 0000 0A       		.byte	10
 1460              		.text
 1461              	.Letext0:
 1462              		.file 2 "d:\\3.tools\\arm_gcc_toolchain\\arm-none-eabi\\include\\machine\\_default_types.h"
 1463              		.file 3 "d:\\3.tools\\arm_gcc_toolchain\\arm-none-eabi\\include\\sys\\_stdint.h"
 1464              		.file 4 "Drivers/CMSIS/Device/ST/STM32F1xx/Include/stm32f103xb.h"
 1465              		.file 5 "Drivers/CMSIS/Device/ST/STM32F1xx/Include/stm32f1xx.h"
 1466              		.file 6 "Drivers/STM32F1xx_HAL_Driver/Inc/stm32f1xx_hal_def.h"
 1467              		.file 7 "Drivers/STM32F1xx_HAL_Driver/Inc/stm32f1xx_hal_dma.h"
 1468              		.file 8 "Drivers/STM32F1xx_HAL_Driver/Inc/stm32f1xx_hal_adc.h"
 1469              		.file 9 "Core/Inc/vardef.h"
 1470              		.file 10 "Core/Inc/main.h"
 1471              		.file 11 "Core/Inc/temp.h"
ARM GAS  C:\Users\jisu8\AppData\Local\Temp\ccM0cXAp.s 			page 40


DEFINED SYMBOLS
                            *ABS*:00000000 temp.c
C:\Users\jisu8\AppData\Local\Temp\ccM0cXAp.s:18     .text.Temperature_Compensation:00000000 $t
C:\Users\jisu8\AppData\Local\Temp\ccM0cXAp.s:23     .text.Temperature_Compensation:00000000 Temperature_Compensation
C:\Users\jisu8\AppData\Local\Temp\ccM0cXAp.s:1103   .text.Temperature_Compensation:0000067c $d
C:\Users\jisu8\AppData\Local\Temp\ccM0cXAp.s:1115   .text.Temp_Read:00000000 $t
C:\Users\jisu8\AppData\Local\Temp\ccM0cXAp.s:1121   .text.Temp_Read:00000000 Temp_Read
C:\Users\jisu8\AppData\Local\Temp\ccM0cXAp.s:1347   .text.Temp_Read:00000114 $d
C:\Users\jisu8\AppData\Local\Temp\ccM0cXAp.s:1385   .bss.Temp_Adc_CPU:00000000 Temp_Adc_CPU
C:\Users\jisu8\AppData\Local\Temp\ccM0cXAp.s:1419   .bss.Temp_Adc_TP:00000000 Temp_Adc_TP
C:\Users\jisu8\AppData\Local\Temp\ccM0cXAp.s:1412   .bss.Temp_Adc_CPU_Volt:00000000 Temp_Adc_CPU_Volt
C:\Users\jisu8\AppData\Local\Temp\ccM0cXAp.s:1446   .bss.Temp_Adc_TP_Volt:00000000 Temp_Adc_TP_Volt
C:\Users\jisu8\AppData\Local\Temp\ccM0cXAp.s:1405   .bss.Temp_Adc_CPU_Sum:00000000 Temp_Adc_CPU_Sum
C:\Users\jisu8\AppData\Local\Temp\ccM0cXAp.s:1439   .bss.Temp_Adc_TP_Sum:00000000 Temp_Adc_TP_Sum
C:\Users\jisu8\AppData\Local\Temp\ccM0cXAp.s:1452   .data.Temp_Avg_CPU_Count:00000000 Temp_Avg_CPU_Count
C:\Users\jisu8\AppData\Local\Temp\ccM0cXAp.s:1458   .data.Temp_Avg_TP_Count:00000000 Temp_Avg_TP_Count
C:\Users\jisu8\AppData\Local\Temp\ccM0cXAp.s:1398   .bss.Temp_Adc_CPU_Status:00000000 Temp_Adc_CPU_Status
C:\Users\jisu8\AppData\Local\Temp\ccM0cXAp.s:1432   .bss.Temp_Adc_TP_Status:00000000 Temp_Adc_TP_Status
C:\Users\jisu8\AppData\Local\Temp\ccM0cXAp.s:1392   .bss.Temp_Adc_CPU_Raw:00000000 Temp_Adc_CPU_Raw
C:\Users\jisu8\AppData\Local\Temp\ccM0cXAp.s:1426   .bss.Temp_Adc_TP_Raw:00000000 Temp_Adc_TP_Raw
C:\Users\jisu8\AppData\Local\Temp\ccM0cXAp.s:1381   .bss.Temp_Adc_CPU:00000000 $d
C:\Users\jisu8\AppData\Local\Temp\ccM0cXAp.s:1388   .bss.Temp_Adc_CPU_Raw:00000000 $d
C:\Users\jisu8\AppData\Local\Temp\ccM0cXAp.s:1399   .bss.Temp_Adc_CPU_Status:00000000 $d
C:\Users\jisu8\AppData\Local\Temp\ccM0cXAp.s:1401   .bss.Temp_Adc_CPU_Sum:00000000 $d
C:\Users\jisu8\AppData\Local\Temp\ccM0cXAp.s:1408   .bss.Temp_Adc_CPU_Volt:00000000 $d
C:\Users\jisu8\AppData\Local\Temp\ccM0cXAp.s:1415   .bss.Temp_Adc_TP:00000000 $d
C:\Users\jisu8\AppData\Local\Temp\ccM0cXAp.s:1422   .bss.Temp_Adc_TP_Raw:00000000 $d
C:\Users\jisu8\AppData\Local\Temp\ccM0cXAp.s:1433   .bss.Temp_Adc_TP_Status:00000000 $d
C:\Users\jisu8\AppData\Local\Temp\ccM0cXAp.s:1435   .bss.Temp_Adc_TP_Sum:00000000 $d
C:\Users\jisu8\AppData\Local\Temp\ccM0cXAp.s:1442   .bss.Temp_Adc_TP_Volt:00000000 $d

UNDEFINED SYMBOLS
__aeabi_ui2f
__aeabi_fmul
__aeabi_fdiv
__aeabi_f2uiz
__aeabi_fsub
__aeabi_fadd
__aeabi_f2iz
HAL_ADC_Start
HAL_ADC_PollForConversion
HAL_ADC_GetValue
hadc1
